GAS LISTING /tmp/cczpX7T9.s 			page 1


   1              		.file	"cconsole.cpp"
   2              		.option pic
   3              		.option norelax
   4              		.text
   5              	.Ltext0:
   6              		.align	2
   7              		.globl	_ZN8Cconsole10init_conslEv
   9              	_ZN8Cconsole10init_conslEv:
  10              	.LFB24:
  11              		.file 1 "src/cconsole.cpp"
   1:src/cconsole.cpp **** #include "../h/cconsole.hpp"
   2:src/cconsole.cpp **** 
   3:src/cconsole.cpp **** Bufer* Cconsole::bIn = nullptr;
   4:src/cconsole.cpp **** Bufer* Cconsole::bOut = nullptr;
   5:src/cconsole.cpp **** 
   6:src/cconsole.cpp **** void Cconsole::init_consl()
   7:src/cconsole.cpp **** {
  12              		.loc 1 7 1
  13              		.cfi_startproc
  14              		.cfi_personality 0x9b,DW.ref.__gxx_personality_v0
  15              		.cfi_lsda 0x1b,.LLSDA24
  16 0000 130101FE 		addi	sp,sp,-32
  17              		.cfi_def_cfa_offset 32
  18 0004 233C1100 		sd	ra,24(sp)
  19 0008 23388100 		sd	s0,16(sp)
  20 000c 23349100 		sd	s1,8(sp)
  21 0010 23302101 		sd	s2,0(sp)
  22              		.cfi_offset 1, -8
  23              		.cfi_offset 8, -16
  24              		.cfi_offset 9, -24
  25              		.cfi_offset 18, -32
  26 0014 13040102 		addi	s0,sp,32
  27              		.cfi_def_cfa 8, 0
   8:src/cconsole.cpp ****     bIn = new Bufer(256);//bGet
  28              		.loc 1 8 5
  29              		.loc 1 8 24 is_stmt 0
  30 0018 13058002 		li	a0,40
  31              	.LEHB0:
  32 001c 97000000 		call	_Znwm@plt
  32      E7800000 
  33              	.LVL0:
  34              	.LEHE0:
  35 0024 93040500 		mv	s1,a0
  36 0028 93050010 		li	a1,256
  37              	.LEHB1:
  38 002c 97000000 		call	_ZN5BuferC1Ei@plt
  38      E7800000 
  39              	.LVL1:
  40              	.LEHE1:
  41              		.loc 1 8 9 discriminator 2
  42 0034 97070000 		sd	s1,.LANCHOR0,a5
  42      23B09700 
   9:src/cconsole.cpp ****     bOut = new Bufer(256);//bPut
  43              		.loc 1 9 5 is_stmt 1 discriminator 2
  44              		.loc 1 9 25 is_stmt 0 discriminator 2
  45 003c 13058002 		li	a0,40
  46              	.LEHB2:
GAS LISTING /tmp/cczpX7T9.s 			page 2


  47 0040 97000000 		call	_Znwm@plt
  47      E7800000 
  48              	.LVL2:
  49              	.LEHE2:
  50 0048 93040500 		mv	s1,a0
  51 004c 93050010 		li	a1,256
  52              	.LEHB3:
  53 0050 97000000 		call	_ZN5BuferC1Ei@plt
  53      E7800000 
  54              	.LVL3:
  55              	.LEHE3:
  56              		.loc 1 9 10 discriminator 2
  57 0058 97070000 		sd	s1,.LANCHOR0+8,a5
  57      23B09700 
  10:src/cconsole.cpp **** }
  58              		.loc 1 10 1 discriminator 2
  59 0060 83308101 		ld	ra,24(sp)
  60              		.cfi_remember_state
  61              		.cfi_restore 1
  62 0064 03340101 		ld	s0,16(sp)
  63              		.cfi_restore 8
  64              		.cfi_def_cfa 2, 32
  65 0068 83348100 		ld	s1,8(sp)
  66              		.cfi_restore 9
  67 006c 03390100 		ld	s2,0(sp)
  68              		.cfi_restore 18
  69 0070 13010102 		addi	sp,sp,32
  70              		.cfi_def_cfa_offset 0
  71 0074 67800000 		jr	ra
  72              	.L4:
  73              		.cfi_restore_state
  74 0078 13090500 		mv	s2,a0
   8:src/cconsole.cpp ****     bIn = new Bufer(256);//bGet
  75              		.loc 1 8 24
  76 007c 13850400 		mv	a0,s1
  77 0080 97000000 		call	_ZdlPv@plt
  77      E7800000 
  78              	.LVL4:
  79 0088 13050900 		mv	a0,s2
  80              	.LEHB4:
  81 008c 97000000 		call	_Unwind_Resume@plt
  81      E7800000 
  82              	.LVL5:
  83              	.L5:
  84 0094 13090500 		mv	s2,a0
   9:src/cconsole.cpp ****     bOut = new Bufer(256);//bPut
  85              		.loc 1 9 25
  86 0098 13850400 		mv	a0,s1
  87 009c 97000000 		call	_ZdlPv@plt
  87      E7800000 
  88              	.LVL6:
  89 00a4 13050900 		mv	a0,s2
  90 00a8 97000000 		call	_Unwind_Resume@plt
  90      E7800000 
  91              	.LVL7:
  92              	.LEHE4:
  93              		.cfi_endproc
GAS LISTING /tmp/cczpX7T9.s 			page 3


  94              	.LFE24:
  95              		.globl	__gxx_personality_v0
  96              		.section	.gcc_except_table,"a",@progbits
  97              	.LLSDA24:
  98 0000 FF       		.byte	0xff
  99 0001 FF       		.byte	0xff
 100 0002 03       		.byte	0x3
 101 0003 41       		.byte	0x41
 102 0004 00000000 		.4byte	.LEHB0-.LFB24
 103 0008 00000000 		.4byte	.LEHE0-.LEHB0
 104 000c 00000000 		.4byte	0
 105 0010 00       		.byte	0
 106 0011 00000000 		.4byte	.LEHB1-.LFB24
 107 0015 00000000 		.4byte	.LEHE1-.LEHB1
 108 0019 00000000 		.4byte	.L4-.LFB24
 109 001d 00       		.byte	0
 110 001e 00000000 		.4byte	.LEHB2-.LFB24
 111 0022 00000000 		.4byte	.LEHE2-.LEHB2
 112 0026 00000000 		.4byte	0
 113 002a 00       		.byte	0
 114 002b 00000000 		.4byte	.LEHB3-.LFB24
 115 002f 00000000 		.4byte	.LEHE3-.LEHB3
 116 0033 00000000 		.4byte	.L5-.LFB24
 117 0037 00       		.byte	0
 118 0038 00000000 		.4byte	.LEHB4-.LFB24
 119 003c 00000000 		.4byte	.LEHE4-.LEHB4
 120 0040 00000000 		.4byte	0
 121 0044 00       		.byte	0
 122              		.text
 124              		.align	2
 125              		.globl	_ZN8Cconsole7putChInEc
 127              	_ZN8Cconsole7putChInEc:
 128              	.LFB25:
  11:src/cconsole.cpp **** 
  12:src/cconsole.cpp **** void Cconsole::putChIn(char c)
  13:src/cconsole.cpp **** {
 129              		.loc 1 13 1 is_stmt 1
 130              		.cfi_startproc
 131              	.LVL8:
 132 00b0 130101FF 		addi	sp,sp,-16
 133              		.cfi_def_cfa_offset 16
 134 00b4 23341100 		sd	ra,8(sp)
 135 00b8 23308100 		sd	s0,0(sp)
 136              		.cfi_offset 1, -8
 137              		.cfi_offset 8, -16
 138 00bc 13040101 		addi	s0,sp,16
 139              		.cfi_def_cfa 8, 0
 140 00c0 93050500 		mv	a1,a0
  14:src/cconsole.cpp ****     bIn->putCh(c);
 141              		.loc 1 14 5
 142              		.loc 1 14 15 is_stmt 0
 143 00c4 17050000 		ld	a0,.LANCHOR0
 143      03350500 
 144              	.LVL9:
 145 00cc 97000000 		call	_ZN5Bufer5putChEi@plt
 145      E7800000 
 146              	.LVL10:
GAS LISTING /tmp/cczpX7T9.s 			page 4


  15:src/cconsole.cpp **** }
 147              		.loc 1 15 1
 148 00d4 83308100 		ld	ra,8(sp)
 149              		.cfi_restore 1
 150 00d8 03340100 		ld	s0,0(sp)
 151              		.cfi_restore 8
 152              		.cfi_def_cfa 2, 16
 153 00dc 13010101 		addi	sp,sp,16
 154              		.cfi_def_cfa_offset 0
 155 00e0 67800000 		jr	ra
 156              		.cfi_endproc
 157              	.LFE25:
 159              		.align	2
 160              		.globl	_ZN8Cconsole8putChOutEc
 162              	_ZN8Cconsole8putChOutEc:
 163              	.LFB26:
  16:src/cconsole.cpp **** void Cconsole::putChOut(char c)
  17:src/cconsole.cpp **** {
 164              		.loc 1 17 1 is_stmt 1
 165              		.cfi_startproc
 166              	.LVL11:
 167 00e4 130101FF 		addi	sp,sp,-16
 168              		.cfi_def_cfa_offset 16
 169 00e8 23341100 		sd	ra,8(sp)
 170 00ec 23308100 		sd	s0,0(sp)
 171              		.cfi_offset 1, -8
 172              		.cfi_offset 8, -16
 173 00f0 13040101 		addi	s0,sp,16
 174              		.cfi_def_cfa 8, 0
 175 00f4 93050500 		mv	a1,a0
  18:src/cconsole.cpp ****     bOut->putCh(c);
 176              		.loc 1 18 5
 177              		.loc 1 18 16 is_stmt 0
 178 00f8 17050000 		ld	a0,.LANCHOR0+8
 178      03350500 
 179              	.LVL12:
 180 0100 97000000 		call	_ZN5Bufer5putChEi@plt
 180      E7800000 
 181              	.LVL13:
  19:src/cconsole.cpp **** }
 182              		.loc 1 19 1
 183 0108 83308100 		ld	ra,8(sp)
 184              		.cfi_restore 1
 185 010c 03340100 		ld	s0,0(sp)
 186              		.cfi_restore 8
 187              		.cfi_def_cfa 2, 16
 188 0110 13010101 		addi	sp,sp,16
 189              		.cfi_def_cfa_offset 0
 190 0114 67800000 		jr	ra
 191              		.cfi_endproc
 192              	.LFE26:
 194              		.align	2
 195              		.globl	_ZN8Cconsole7getChInEv
 197              	_ZN8Cconsole7getChInEv:
 198              	.LFB27:
  20:src/cconsole.cpp **** char Cconsole::getChIn()
  21:src/cconsole.cpp **** {
GAS LISTING /tmp/cczpX7T9.s 			page 5


 199              		.loc 1 21 1 is_stmt 1
 200              		.cfi_startproc
 201 0118 130101FF 		addi	sp,sp,-16
 202              		.cfi_def_cfa_offset 16
 203 011c 23341100 		sd	ra,8(sp)
 204 0120 23308100 		sd	s0,0(sp)
 205              		.cfi_offset 1, -8
 206              		.cfi_offset 8, -16
 207 0124 13040101 		addi	s0,sp,16
 208              		.cfi_def_cfa 8, 0
  22:src/cconsole.cpp ****     return bIn->getCh();
 209              		.loc 1 22 5
 210              		.loc 1 22 22 is_stmt 0
 211 0128 17050000 		ld	a0,.LANCHOR0
 211      03350500 
 212 0130 97000000 		call	_ZN5Bufer5getChEv@plt
 212      E7800000 
 213              	.LVL14:
  23:src/cconsole.cpp **** }
 214              		.loc 1 23 1
 215 0138 1375F50F 		andi	a0,a0,0xff
 216 013c 83308100 		ld	ra,8(sp)
 217              		.cfi_restore 1
 218 0140 03340100 		ld	s0,0(sp)
 219              		.cfi_restore 8
 220              		.cfi_def_cfa 2, 16
 221 0144 13010101 		addi	sp,sp,16
 222              		.cfi_def_cfa_offset 0
 223 0148 67800000 		jr	ra
 224              		.cfi_endproc
 225              	.LFE27:
 227              		.align	2
 228              		.globl	_ZN8Cconsole8getChOutEv
 230              	_ZN8Cconsole8getChOutEv:
 231              	.LFB28:
  24:src/cconsole.cpp **** char Cconsole::getChOut()
  25:src/cconsole.cpp **** {
 232              		.loc 1 25 1 is_stmt 1
 233              		.cfi_startproc
 234 014c 130101FF 		addi	sp,sp,-16
 235              		.cfi_def_cfa_offset 16
 236 0150 23341100 		sd	ra,8(sp)
 237 0154 23308100 		sd	s0,0(sp)
 238              		.cfi_offset 1, -8
 239              		.cfi_offset 8, -16
 240 0158 13040101 		addi	s0,sp,16
 241              		.cfi_def_cfa 8, 0
  26:src/cconsole.cpp ****     return bOut->getCh();
 242              		.loc 1 26 5
 243              		.loc 1 26 23 is_stmt 0
 244 015c 17050000 		ld	a0,.LANCHOR0+8
 244      03350500 
 245 0164 97000000 		call	_ZN5Bufer5getChEv@plt
 245      E7800000 
 246              	.LVL15:
  27:src/cconsole.cpp **** }...
 247              		.loc 1 27 1
GAS LISTING /tmp/cczpX7T9.s 			page 6


 248 016c 1375F50F 		andi	a0,a0,0xff
 249 0170 83308100 		ld	ra,8(sp)
 250              		.cfi_restore 1
 251 0174 03340100 		ld	s0,0(sp)
 252              		.cfi_restore 8
 253              		.cfi_def_cfa 2, 16
 254 0178 13010101 		addi	sp,sp,16
 255              		.cfi_def_cfa_offset 0
 256 017c 67800000 		jr	ra
 257              		.cfi_endproc
 258              	.LFE28:
 260              		.globl	_ZN8Cconsole4bOutE
 261              		.globl	_ZN8Cconsole3bInE
 262              		.bss
 263              		.align	3
 264              		.set	.LANCHOR0,. + 0
 267              	_ZN8Cconsole3bInE:
 268 0000 00000000 		.zero	8
 268      00000000 
 271              	_ZN8Cconsole4bOutE:
 272 0008 00000000 		.zero	8
 272      00000000 
 273              		.text
 274              	.Letext0:
 275              		.file 2 "src/../h/../h/../h/../h/../lib/hw.h"
 276              		.file 3 "src/../h/../h/../h/list.hpp"
 277              		.file 4 "src/../h/../h/../h/tcb.hpp"
 278              		.file 5 "src/../h/../h/../h/semaphore.hpp"
 279              		.file 6 "src/../h/../h/bufer.hpp"
 280              		.file 7 "src/../h/cconsole.hpp"
 281              		.file 8 "src/../h/../h/../h/syscall_c.h"
 2568              		.align	3
 2571              	DW.ref.__gxx_personality_v0:
 2572 0000 00000000 		.dword	__gxx_personality_v0
 2572      00000000 
 2573              		.ident	"GCC: (Ubuntu 9.4.0-1ubuntu1~20.04) 9.4.0"
 2574              		.section	.note.GNU-stack,"",@progbits
GAS LISTING /tmp/cczpX7T9.s 			page 7

