GAS LISTING /tmp/ccnOeXXo.s 			page 1


   1              		.file	"maintst1.cpp"
   2              		.option pic
   3              		.option norelax
   4              		.text
   5              	.Ltext0:
   6              		.align	2
   7              		.globl	_Z7idleFunPv
   9              	_Z7idleFunPv:
  10              	.LFB41:
  11              		.file 1 "src/maintst1.cpp"
   1:src/maintst1.cpp **** #include "../lib/console.h"
   2:src/maintst1.cpp **** #include "../h/tcb.hpp"
   3:src/maintst1.cpp **** #include "../h/workers.hpp"
   4:src/maintst1.cpp **** #include "../h/print.hpp"
   5:src/maintst1.cpp **** #include "../h/Riscv.hpp"
   6:src/maintst1.cpp **** #include "../h/cconsole.hpp"
   7:src/maintst1.cpp **** //#include "../test/ConsumerProducer_CPP_API_test.hpp"
   8:src/maintst1.cpp **** 
   9:src/maintst1.cpp **** void idleFun(void* arg){
  12              		.loc 1 9 24
  13              		.cfi_startproc
  14              	.LVL0:
  15 0000 130101FF 		addi	sp,sp,-16
  16              		.cfi_def_cfa_offset 16
  17 0004 23341100 		sd	ra,8(sp)
  18 0008 23308100 		sd	s0,0(sp)
  19              		.cfi_offset 1, -8
  20              		.cfi_offset 8, -16
  21 000c 13040101 		addi	s0,sp,16
  22              		.cfi_def_cfa 8, 0
  23              	.LVL1:
  24              	.L2:
  10:src/maintst1.cpp ****     while(true){
  25              		.loc 1 10 5 discriminator 1
  11:src/maintst1.cpp ****         thread_dispatch();
  26              		.loc 1 11 9 discriminator 1
  27              		.loc 1 11 24 is_stmt 0 discriminator 1
  28 0010 97000000 		call	_Z15thread_dispatchv@plt
  28      E7800000 
  29              	.LVL2:
  10:src/maintst1.cpp ****     while(true){
  30              		.loc 1 10 5 is_stmt 1 discriminator 1
  31 0018 6FF09FFF 		j	.L2
  32              		.cfi_endproc
  33              	.LFE41:
  35              		.align	2
  36              		.globl	_Z10consoleRunPv
  38              	_Z10consoleRunPv:
  39              	.LFB42:
  12:src/maintst1.cpp ****     }
  13:src/maintst1.cpp **** }
  14:src/maintst1.cpp **** 
  15:src/maintst1.cpp **** void consoleRun(void* arg)
  16:src/maintst1.cpp **** {
  40              		.loc 1 16 1
  41              		.cfi_startproc
  42              	.LVL3:
GAS LISTING /tmp/ccnOeXXo.s 			page 2


  43              	.L8:
  17:src/maintst1.cpp ****     while(true) {
  44              		.loc 1 17 5
  18:src/maintst1.cpp ****         //char s = *(char *) CONSOLE_STATUS;
  19:src/maintst1.cpp ****         while (*(char *) CONSOLE_STATUS & CONSOLE_TX_STATUS_BIT) {
  45              		.loc 1 19 9
  46              		.loc 1 19 43
  47              		.loc 1 19 16 is_stmt 0
  48 001c 97070000 		la	a5,CONSOLE_STATUS
  48      83B70700 
  49 0024 83B70700 		ld	a5,0(a5)
  50 0028 83C70700 		lbu	a5,0(a5)
  51              		.loc 1 19 43
  52 002c 93F70702 		andi	a5,a5,32
  53 0030 E38607FE 		beqz	a5,.L8
  16:src/maintst1.cpp ****     while(true) {
  54              		.loc 1 16 1
  55 0034 130101FE 		addi	sp,sp,-32
  56              		.cfi_def_cfa_offset 32
  57 0038 233C1100 		sd	ra,24(sp)
  58 003c 23388100 		sd	s0,16(sp)
  59 0040 23349100 		sd	s1,8(sp)
  60              		.cfi_offset 1, -8
  61              		.cfi_offset 8, -16
  62              		.cfi_offset 9, -24
  63 0044 13040102 		addi	s0,sp,32
  64              		.cfi_def_cfa 8, 0
  65              	.LVL4:
  66              	.L9:
  20:src/maintst1.cpp ****             *(char *) CONSOLE_TX_DATA = Cconsole::getChOut();
  67              		.loc 1 20 13 is_stmt 1
  68 0048 97070000 		la	a5,CONSOLE_TX_DATA
  68      83B70700 
  69 0050 83B40700 		ld	s1,0(a5)
  70              		.loc 1 20 59 is_stmt 0
  71 0054 97000000 		call	_ZN8Cconsole8getChOutEv@plt
  71      E7800000 
  72              	.LVL5:
  73              		.loc 1 20 39
  74 005c 2380A400 		sb	a0,0(s1)
  75              	.L5:
  17:src/maintst1.cpp ****         //char s = *(char *) CONSOLE_STATUS;
  76              		.loc 1 17 5 is_stmt 1
  19:src/maintst1.cpp ****             *(char *) CONSOLE_TX_DATA = Cconsole::getChOut();
  77              		.loc 1 19 9
  19:src/maintst1.cpp ****             *(char *) CONSOLE_TX_DATA = Cconsole::getChOut();
  78              		.loc 1 19 43
  19:src/maintst1.cpp ****             *(char *) CONSOLE_TX_DATA = Cconsole::getChOut();
  79              		.loc 1 19 16 is_stmt 0
  80 0060 97070000 		la	a5,CONSOLE_STATUS
  80      83B70700 
  81 0068 83B70700 		ld	a5,0(a5)
  82 006c 83C70700 		lbu	a5,0(a5)
  19:src/maintst1.cpp ****             *(char *) CONSOLE_TX_DATA = Cconsole::getChOut();
  83              		.loc 1 19 43
  84 0070 93F70702 		andi	a5,a5,32
  85 0074 E38607FE 		beqz	a5,.L5
GAS LISTING /tmp/ccnOeXXo.s 			page 3


  86 0078 6FF01FFD 		j	.L9
  87              		.cfi_endproc
  88              	.LFE42:
  90              		.align	2
  91              		.globl	_Z15userMainWrapperPv
  93              	_Z15userMainWrapperPv:
  94              	.LFB44:
  21:src/maintst1.cpp ****             //s = *(char *) CONSOLE_STATUS;
  22:src/maintst1.cpp ****         }
  23:src/maintst1.cpp ****     }
  24:src/maintst1.cpp **** }
  25:src/maintst1.cpp **** 
  26:src/maintst1.cpp **** void initialization(){
  27:src/maintst1.cpp ****     MemAllocator::initialize();
  28:src/maintst1.cpp ****     Riscv::w_stvec((uint64) &Riscv::supervisorTrap);
  29:src/maintst1.cpp ****     Cconsole::init_consl();
  30:src/maintst1.cpp **** }
  31:src/maintst1.cpp **** /*void userMain(){
  32:src/maintst1.cpp ****     testConsumerProducer();
  33:src/maintst1.cpp **** }*/
  34:src/maintst1.cpp **** void userMain();
  35:src/maintst1.cpp **** 
  36:src/maintst1.cpp **** void userMainWrapper(void* args){
  95              		.loc 1 36 33 is_stmt 1
  96              		.cfi_startproc
  97              	.LVL6:
  98 007c 130101FF 		addi	sp,sp,-16
  99              		.cfi_def_cfa_offset 16
 100 0080 23341100 		sd	ra,8(sp)
 101 0084 23308100 		sd	s0,0(sp)
 102              		.cfi_offset 1, -8
 103              		.cfi_offset 8, -16
 104 0088 13040101 		addi	s0,sp,16
 105              		.cfi_def_cfa 8, 0
  37:src/maintst1.cpp ****     userMain();
 106              		.loc 1 37 5
 107              		.loc 1 37 13 is_stmt 0
 108 008c 97000000 		call	_Z8userMainv@plt
 108      E7800000 
 109              	.LVL7:
  38:src/maintst1.cpp **** }
 110              		.loc 1 38 1
 111 0094 83308100 		ld	ra,8(sp)
 112              		.cfi_restore 1
 113 0098 03340100 		ld	s0,0(sp)
 114              		.cfi_restore 8
 115              		.cfi_def_cfa 2, 16
 116 009c 13010101 		addi	sp,sp,16
 117              		.cfi_def_cfa_offset 0
 118 00a0 67800000 		jr	ra
 119              		.cfi_endproc
 120              	.LFE44:
 122              		.align	2
 123              		.globl	_Z14initializationv
 125              	_Z14initializationv:
 126              	.LFB43:
  26:src/maintst1.cpp ****     MemAllocator::initialize();
GAS LISTING /tmp/ccnOeXXo.s 			page 4


 127              		.loc 1 26 22 is_stmt 1
 128              		.cfi_startproc
 129 00a4 130101FF 		addi	sp,sp,-16
 130              		.cfi_def_cfa_offset 16
 131 00a8 23341100 		sd	ra,8(sp)
 132 00ac 23308100 		sd	s0,0(sp)
 133              		.cfi_offset 1, -8
 134              		.cfi_offset 8, -16
 135 00b0 13040101 		addi	s0,sp,16
 136              		.cfi_def_cfa 8, 0
  27:src/maintst1.cpp ****     Riscv::w_stvec((uint64) &Riscv::supervisorTrap);
 137              		.loc 1 27 5
  27:src/maintst1.cpp ****     Riscv::w_stvec((uint64) &Riscv::supervisorTrap);
 138              		.loc 1 27 29 is_stmt 0
 139 00b4 97000000 		call	_ZN12MemAllocator10initializeEv@plt
 139      E7800000 
 140              	.LVL8:
  28:src/maintst1.cpp ****     Cconsole::init_consl();
 141              		.loc 1 28 5 is_stmt 1
  28:src/maintst1.cpp ****     Cconsole::init_consl();
 142              		.loc 1 28 19 is_stmt 0
 143 00bc 97070000 		la	a5,_ZN5Riscv14supervisorTrapEv
 143      83B70700 
 144              	.LVL9:
 145              	.LBB8:
 146              	.LBB9:
 147              		.file 2 "src/../h/Riscv.hpp"
   1:src/../h/Riscv.hpp **** #ifndef RISCV_HPP
   2:src/../h/Riscv.hpp **** #define RISCV_HPP
   3:src/../h/Riscv.hpp **** 
   4:src/../h/Riscv.hpp **** //adresu ove funkcije treba proslediti registru stvec da bi pri pozivu ecall-a pozivao supervisorTr
   5:src/../h/Riscv.hpp **** //extern "C" void supervisorTrap();
   6:src/../h/Riscv.hpp **** #include"../lib/hw.h"
   7:src/../h/Riscv.hpp **** 
   8:src/../h/Riscv.hpp **** class Riscv
   9:src/../h/Riscv.hpp **** {
  10:src/../h/Riscv.hpp **** public:
  11:src/../h/Riscv.hpp ****     //pop sstatus.spp and sstatus.spie bits (has to be a non inline function)
  12:src/../h/Riscv.hpp ****     static void popSppSpie();
  13:src/../h/Riscv.hpp **** 
  14:src/../h/Riscv.hpp ****     static void initRiscv()
  15:src/../h/Riscv.hpp ****     {
  16:src/../h/Riscv.hpp ****         __asm__ volatile("csrw stvec, %[vector]" : : [vector] "r" (&supervisorTrap));
  17:src/../h/Riscv.hpp ****     }
  18:src/../h/Riscv.hpp **** 
  19:src/../h/Riscv.hpp ****     // read register scause
  20:src/../h/Riscv.hpp ****     static uint64 r_scause();
  21:src/../h/Riscv.hpp **** 
  22:src/../h/Riscv.hpp ****     // write register scause
  23:src/../h/Riscv.hpp ****     static void w_scause(uint64 scause);
  24:src/../h/Riscv.hpp **** 
  25:src/../h/Riscv.hpp ****     // read register sepc
  26:src/../h/Riscv.hpp ****     static uint64 r_sepc();
  27:src/../h/Riscv.hpp **** 
  28:src/../h/Riscv.hpp ****     // write register sepc
  29:src/../h/Riscv.hpp ****     static void w_sepc(uint64 sepc);
  30:src/../h/Riscv.hpp **** 
GAS LISTING /tmp/ccnOeXXo.s 			page 5


  31:src/../h/Riscv.hpp ****     // read register stvec
  32:src/../h/Riscv.hpp ****     static uint64 r_stvec();
  33:src/../h/Riscv.hpp **** 
  34:src/../h/Riscv.hpp ****     // write register stvec
  35:src/../h/Riscv.hpp ****     static void w_stvec(uint64 stvec);
  36:src/../h/Riscv.hpp **** 
  37:src/../h/Riscv.hpp ****     // read register stval
  38:src/../h/Riscv.hpp ****     static uint64 r_stval();
  39:src/../h/Riscv.hpp **** 
  40:src/../h/Riscv.hpp ****     // write register stval
  41:src/../h/Riscv.hpp ****     static void w_stval(uint64 stval);
  42:src/../h/Riscv.hpp **** 
  43:src/../h/Riscv.hpp ****     enum BitMaskSip
  44:src/../h/Riscv.hpp ****     {
  45:src/../h/Riscv.hpp ****         SIP_SSIE = (1 << 1),
  46:src/../h/Riscv.hpp ****         SIP_STIE = (1 << 5),
  47:src/../h/Riscv.hpp ****         SIP_SEIE = (1 << 9),
  48:src/../h/Riscv.hpp ****     };
  49:src/../h/Riscv.hpp **** 
  50:src/../h/Riscv.hpp ****     // mask set register sip
  51:src/../h/Riscv.hpp ****     static void ms_sip(uint64 mask);
  52:src/../h/Riscv.hpp **** 
  53:src/../h/Riscv.hpp ****     // mask clear register sip
  54:src/../h/Riscv.hpp ****     static void mc_sip(uint64 mask);
  55:src/../h/Riscv.hpp **** 
  56:src/../h/Riscv.hpp ****     // read register sip
  57:src/../h/Riscv.hpp ****     static uint64 r_sip();
  58:src/../h/Riscv.hpp **** 
  59:src/../h/Riscv.hpp ****     // write register sip
  60:src/../h/Riscv.hpp ****     static void w_sip(uint64 sip);
  61:src/../h/Riscv.hpp **** 
  62:src/../h/Riscv.hpp ****     enum BitMaskSstatus
  63:src/../h/Riscv.hpp ****     {
  64:src/../h/Riscv.hpp ****         SSTATUS_SIE = (1 << 1),
  65:src/../h/Riscv.hpp ****         SSTATUS_SPIE = (1 << 5),
  66:src/../h/Riscv.hpp ****         SSTATUS_SPP = (1 << 8),
  67:src/../h/Riscv.hpp ****     };
  68:src/../h/Riscv.hpp **** 
  69:src/../h/Riscv.hpp ****     // mask set register sstatus
  70:src/../h/Riscv.hpp ****     static void ms_sstatus(uint64 mask);
  71:src/../h/Riscv.hpp **** 
  72:src/../h/Riscv.hpp ****     // mask clear register sstatus
  73:src/../h/Riscv.hpp ****     static void mc_sstatus(uint64 mask);
  74:src/../h/Riscv.hpp **** 
  75:src/../h/Riscv.hpp ****     // read register sstatus
  76:src/../h/Riscv.hpp ****     static uint64 r_sstatus();
  77:src/../h/Riscv.hpp **** 
  78:src/../h/Riscv.hpp ****     // write register sstatus
  79:src/../h/Riscv.hpp ****     static void w_sstatus(uint64 sstatus);
  80:src/../h/Riscv.hpp **** 
  81:src/../h/Riscv.hpp **** 
  82:src/../h/Riscv.hpp ****     static void supervisorTrap();//ovo ce procesor pozivati kada se pojavi zahtev za prekidom
  83:src/../h/Riscv.hpp **** private:
  84:src/../h/Riscv.hpp ****     static void handleSupervisorTrap();
  85:src/../h/Riscv.hpp **** 
  86:src/../h/Riscv.hpp **** };
  87:src/../h/Riscv.hpp **** 
GAS LISTING /tmp/ccnOeXXo.s 			page 6


  88:src/../h/Riscv.hpp **** 
  89:src/../h/Riscv.hpp **** inline uint64 Riscv::r_scause()
  90:src/../h/Riscv.hpp **** {
  91:src/../h/Riscv.hpp ****     uint64 volatile scause;
  92:src/../h/Riscv.hpp ****     __asm__ volatile ("csrr %[scause], scause" : [scause] "=r"(scause));
  93:src/../h/Riscv.hpp ****     return scause;
  94:src/../h/Riscv.hpp **** }
  95:src/../h/Riscv.hpp **** 
  96:src/../h/Riscv.hpp **** inline void Riscv::w_scause(uint64 scause)
  97:src/../h/Riscv.hpp **** {
  98:src/../h/Riscv.hpp ****     __asm__ volatile ("csrw scause, %[scause]" : : [scause] "r"(scause));
  99:src/../h/Riscv.hpp **** }
 100:src/../h/Riscv.hpp **** 
 101:src/../h/Riscv.hpp **** inline uint64 Riscv::r_sepc()
 102:src/../h/Riscv.hpp **** {
 103:src/../h/Riscv.hpp ****     uint64 volatile sepc;
 104:src/../h/Riscv.hpp ****     __asm__ volatile ("csrr %[sepc], sepc" : [sepc] "=r"(sepc));
 105:src/../h/Riscv.hpp ****     return sepc;
 106:src/../h/Riscv.hpp **** }
 107:src/../h/Riscv.hpp **** 
 108:src/../h/Riscv.hpp **** inline void Riscv::w_sepc(uint64 sepc)
 109:src/../h/Riscv.hpp **** {
 110:src/../h/Riscv.hpp ****     __asm__ volatile ("csrw sepc, %[sepc]" : : [sepc] "r"(sepc));
 111:src/../h/Riscv.hpp **** }
 112:src/../h/Riscv.hpp **** 
 113:src/../h/Riscv.hpp **** inline uint64 Riscv::r_stvec()
 114:src/../h/Riscv.hpp **** {
 115:src/../h/Riscv.hpp ****     uint64 volatile stvec;
 116:src/../h/Riscv.hpp ****     __asm__ volatile ("csrr %[stvec], stvec" : [stvec] "=r"(stvec));
 117:src/../h/Riscv.hpp ****     return stvec;
 118:src/../h/Riscv.hpp **** }
 119:src/../h/Riscv.hpp **** 
 120:src/../h/Riscv.hpp **** inline void Riscv::w_stvec(uint64 stvec)
 121:src/../h/Riscv.hpp **** {
 122:src/../h/Riscv.hpp ****     __asm__ volatile ("csrw stvec, %[stvec]" : : [stvec] "r"(stvec));
 148              		.loc 2 122 5 is_stmt 1
 149              		.loc 2 122 69 is_stmt 0
 150              	#APP
 151              	# 122 "src/../h/Riscv.hpp" 1
 123              	}
 152              		csrw stvec, a5
 153              	# 0 "" 2
 154              	.LVL10:
 155              	#NO_APP
 156              	.LBE9:
 157              	.LBE8:
  29:src/maintst1.cpp **** }
 158              		.loc 1 29 5 is_stmt 1
  29:src/maintst1.cpp **** }
 159              		.loc 1 29 25 is_stmt 0
 160 00c8 97000000 		call	_ZN8Cconsole10init_conslEv@plt
 160      E7800000 
 161              	.LVL11:
  30:src/maintst1.cpp **** /*void userMain(){
 162              		.loc 1 30 1
 163 00d0 83308100 		ld	ra,8(sp)
 164              		.cfi_restore 1
GAS LISTING /tmp/ccnOeXXo.s 			page 7


 165 00d4 03340100 		ld	s0,0(sp)
 166              		.cfi_restore 8
 167              		.cfi_def_cfa 2, 16
 168 00d8 13010101 		addi	sp,sp,16
 169              		.cfi_def_cfa_offset 0
 170 00dc 67800000 		jr	ra
 171              		.cfi_endproc
 172              	.LFE43:
 174              		.section	.rodata.str1.8,"aMS",@progbits,1
 175              		.align	3
 176              	.LC0:
 177 0000 76726174 		.string	"vratio se u main\n"
 177      696F2073 
 177      65207520 
 177      6D61696E 
 177      0A00
 178              		.text
 179              		.align	2
 180              		.globl	main
 182              	main:
 183              	.LFB45:
  39:src/maintst1.cpp **** TCB* mainThread;
  40:src/maintst1.cpp **** TCB* idleThread;
  41:src/maintst1.cpp **** TCB* putcThread;
  42:src/maintst1.cpp **** int main()
  43:src/maintst1.cpp **** {
 184              		.loc 1 43 1 is_stmt 1
 185              		.cfi_startproc
 186 00e0 130101FD 		addi	sp,sp,-48
 187              		.cfi_def_cfa_offset 48
 188 00e4 23341102 		sd	ra,40(sp)
 189 00e8 23308102 		sd	s0,32(sp)
 190 00ec 233C9100 		sd	s1,24(sp)
 191              		.cfi_offset 1, -8
 192              		.cfi_offset 8, -16
 193              		.cfi_offset 9, -24
 194 00f0 13040103 		addi	s0,sp,48
 195              		.cfi_def_cfa 8, 0
  44:src/maintst1.cpp ****     initialization();
 196              		.loc 1 44 5
 197              		.loc 1 44 19 is_stmt 0
 198 00f4 97000000 		call	_Z14initializationv
 198      E7800000 
 199              	.LVL12:
  45:src/maintst1.cpp **** 
  46:src/maintst1.cpp ****     mainThread = TCB::createThread(nullptr,nullptr,nullptr);
 200              		.loc 1 46 5 is_stmt 1
 201              		.loc 1 46 35 is_stmt 0
 202 00fc 13060000 		li	a2,0
 203 0100 93050000 		li	a1,0
 204 0104 13050000 		li	a0,0
 205 0108 97000000 		call	_ZN3TCB12createThreadEPFvPvES0_Pm@plt
 205      E7800000 
 206              	.LVL13:
 207              		.loc 1 46 16
 208 0110 97040000 		lla	s1,.LANCHOR0
 208      93840400 
GAS LISTING /tmp/ccnOeXXo.s 			page 8


 209 0118 23B0A400 		sd	a0,0(s1)
  47:src/maintst1.cpp ****     TCB::running = mainThread;
 210              		.loc 1 47 5 is_stmt 1
 211              		.loc 1 47 18 is_stmt 0
 212 011c 97070000 		la	a5,_ZN3TCB7runningE
 212      83B70700 
 213 0124 23B0A700 		sd	a0,0(a5)
  48:src/maintst1.cpp ****     putcThread = TCB::createThread(&consoleRun, nullptr, nullptr);
 214              		.loc 1 48 5 is_stmt 1
 215              		.loc 1 48 35 is_stmt 0
 216 0128 13060000 		li	a2,0
 217 012c 93050000 		li	a1,0
 218 0130 17050000 		lla	a0,_Z10consoleRunPv
 218      13050500 
 219 0138 97000000 		call	_ZN3TCB12createThreadEPFvPvES0_Pm@plt
 219      E7800000 
 220              	.LVL14:
 221              		.loc 1 48 16
 222 0140 23B4A400 		sd	a0,8(s1)
  49:src/maintst1.cpp ****     idleThread = TCB::createThread(&idleFun,nullptr,nullptr);
 223              		.loc 1 49 5 is_stmt 1
 224              		.loc 1 49 35 is_stmt 0
 225 0144 13060000 		li	a2,0
 226 0148 93050000 		li	a1,0
 227 014c 17050000 		lla	a0,_Z7idleFunPv
 227      13050500 
 228 0154 97000000 		call	_ZN3TCB12createThreadEPFvPvES0_Pm@plt
 228      E7800000 
 229              	.LVL15:
 230              		.loc 1 49 16
 231 015c 23B8A400 		sd	a0,16(s1)
  50:src/maintst1.cpp **** 
  51:src/maintst1.cpp ****     Riscv::ms_sstatus(Riscv::SSTATUS_SIE);
 232              		.loc 1 51 5 is_stmt 1
 233              	.LVL16:
 234              	.LBB10:
 235              	.LBB11:
 124:src/../h/Riscv.hpp **** 
 125:src/../h/Riscv.hpp **** inline uint64 Riscv::r_stval()
 126:src/../h/Riscv.hpp **** {
 127:src/../h/Riscv.hpp ****     uint64 volatile stval;
 128:src/../h/Riscv.hpp ****     __asm__ volatile ("csrr %[stval], stval" : [stval] "=r"(stval));
 129:src/../h/Riscv.hpp ****     return stval;
 130:src/../h/Riscv.hpp **** }
 131:src/../h/Riscv.hpp **** 
 132:src/../h/Riscv.hpp **** inline void Riscv::w_stval(uint64 stval)
 133:src/../h/Riscv.hpp **** {
 134:src/../h/Riscv.hpp ****     __asm__ volatile ("csrw stval, %[stval]" : : [stval] "r"(stval));
 135:src/../h/Riscv.hpp **** }
 136:src/../h/Riscv.hpp **** 
 137:src/../h/Riscv.hpp **** inline void Riscv::ms_sip(uint64 mask)
 138:src/../h/Riscv.hpp **** {
 139:src/../h/Riscv.hpp ****     __asm__ volatile ("csrs sip, %[mask]" : : [mask] "r"(mask));
 140:src/../h/Riscv.hpp **** }
 141:src/../h/Riscv.hpp **** 
 142:src/../h/Riscv.hpp **** inline void Riscv::mc_sip(uint64 mask)
 143:src/../h/Riscv.hpp **** {
GAS LISTING /tmp/ccnOeXXo.s 			page 9


 144:src/../h/Riscv.hpp ****     __asm__ volatile ("csrc sip, %[mask]" : : [mask] "r"(mask));
 145:src/../h/Riscv.hpp **** }
 146:src/../h/Riscv.hpp **** 
 147:src/../h/Riscv.hpp **** inline uint64 Riscv::r_sip()
 148:src/../h/Riscv.hpp **** {
 149:src/../h/Riscv.hpp ****     uint64 volatile sip;
 150:src/../h/Riscv.hpp ****     __asm__ volatile ("csrr %[sip], sip" : [sip] "=r"(sip));
 151:src/../h/Riscv.hpp ****     return sip;
 152:src/../h/Riscv.hpp **** }
 153:src/../h/Riscv.hpp **** 
 154:src/../h/Riscv.hpp **** inline void Riscv::w_sip(uint64 sip)
 155:src/../h/Riscv.hpp **** {
 156:src/../h/Riscv.hpp ****     __asm__ volatile ("csrw sip, %[sip]" : : [sip] "r"(sip));
 157:src/../h/Riscv.hpp **** }
 158:src/../h/Riscv.hpp **** 
 159:src/../h/Riscv.hpp **** inline void Riscv::ms_sstatus(uint64 mask)
 160:src/../h/Riscv.hpp **** {
 161:src/../h/Riscv.hpp ****     __asm__ volatile ("csrs sstatus, %[mask]" : : [mask] "r"(mask));
 236              		.loc 2 161 5
 237              		.loc 2 161 68 is_stmt 0
 238 0160 93072000 		li	a5,2
 239              	#APP
 240              	# 161 "src/../h/Riscv.hpp" 1
 162              	}
 241              		csrs sstatus, a5
 242              	# 0 "" 2
 243              	.LVL17:
 244              	#NO_APP
 245              	.LBE11:
 246              	.LBE10:
  52:src/maintst1.cpp **** 
  53:src/maintst1.cpp ****     thread_t userThread;
 247              		.loc 1 53 5 is_stmt 1
  54:src/maintst1.cpp ****     thread_create(&userThread,&userMainWrapper,nullptr);
 248              		.loc 1 54 5
 249              		.loc 1 54 18 is_stmt 0
 250 0168 13060000 		li	a2,0
 251 016c 97050000 		lla	a1,_Z15userMainWrapperPv
 251      93850500 
 252 0174 130584FD 		addi	a0,s0,-40
 253 0178 97000000 		call	_Z13thread_createPP7_threadPFvPvES2_@plt
 253      E7800000 
 254              	.LVL18:
 255              	.L16:
  55:src/maintst1.cpp **** 
  56:src/maintst1.cpp ****     while(!((TCB*)userThread)->isFinished()){
 256              		.loc 1 56 5 is_stmt 1
 257              		.loc 1 56 11
 258              		.loc 1 56 42 is_stmt 0
 259 0180 833784FD 		ld	a5,-40(s0)
 260              	.LVL19:
 261              	.LBB12:
 262              	.LBB13:
 263              		.file 3 "src/../h/tcb.hpp"
   1:src/../h/tcb.hpp **** #ifndef OS1_VEZBE07_RISCV_CONTEXT_SWITCH_2_INTERRUPT_TCB_HPP
   2:src/../h/tcb.hpp **** #define OS1_VEZBE07_RISCV_CONTEXT_SWITCH_2_INTERRUPT_TCB_HPP
   3:src/../h/tcb.hpp **** 
GAS LISTING /tmp/ccnOeXXo.s 			page 10


   4:src/../h/tcb.hpp **** #include "../lib/hw.h"
   5:src/../h/tcb.hpp **** #include "scheduler.hpp"
   6:src/../h/tcb.hpp **** #include "syscall_c.h"
   7:src/../h/tcb.hpp **** class TCB
   8:src/../h/tcb.hpp **** {
   9:src/../h/tcb.hpp **** public:
  10:src/../h/tcb.hpp **** 
  11:src/../h/tcb.hpp ****     void setStatus(int s) { status = s; }
  12:src/../h/tcb.hpp ****     //s = 01 (1)blocked
  13:src/../h/tcb.hpp ****     //s = 10 (2)sleeping
  14:src/../h/tcb.hpp ****     //s = 11 (3)blocked i sleeping
  15:src/../h/tcb.hpp ****     int readStatus(){ return status; }
  16:src/../h/tcb.hpp **** 
  17:src/../h/tcb.hpp ****     ~TCB() { delete[] stack; }
  18:src/../h/tcb.hpp **** 
  19:src/../h/tcb.hpp ****     bool isFinished() const { return finished; }
 264              		.loc 3 19 31 is_stmt 1
 265              		.loc 3 19 38 is_stmt 0
 266 0184 83C78702 		lbu	a5,40(a5)
 267              	.LVL20:
 268              	.LBE13:
 269              	.LBE12:
 270              		.loc 1 56 11
 271 0188 63980700 		bnez	a5,.L15
  57:src/maintst1.cpp ****         thread_dispatch();
 272              		.loc 1 57 9 is_stmt 1
 273              		.loc 1 57 24 is_stmt 0
 274 018c 97000000 		call	_Z15thread_dispatchv@plt
 274      E7800000 
 275              	.LVL21:
 276 0194 6FF0DFFE 		j	.L16
 277              	.L15:
  58:src/maintst1.cpp ****     }
  59:src/maintst1.cpp **** 
  60:src/maintst1.cpp ****     mprintString("vratio se u main\n");
 278              		.loc 1 60 5 is_stmt 1
 279              		.loc 1 60 17 is_stmt 0
 280 0198 17050000 		lla	a0,.LC0
 280      13050500 
 281 01a0 97000000 		call	_Z12mprintStringPKc@plt
 281      E7800000 
 282              	.LVL22:
  61:src/maintst1.cpp **** 
  62:src/maintst1.cpp ****     thread_dispatch();
 283              		.loc 1 62 5 is_stmt 1
 284              		.loc 1 62 20 is_stmt 0
 285 01a8 97000000 		call	_Z15thread_dispatchv@plt
 285      E7800000 
 286              	.LVL23:
  63:src/maintst1.cpp **** 
  64:src/maintst1.cpp **** 
  65:src/maintst1.cpp **** 
  66:src/maintst1.cpp ****     __asm__ volatile("li a0,0x5555");
 287              		.loc 1 66 5 is_stmt 1
 288              		.loc 1 66 37 is_stmt 0
 289              	#APP
 290              	# 66 "src/maintst1.cpp" 1
GAS LISTING /tmp/ccnOeXXo.s 			page 11


  67              	    __asm__ volatile("li a1,0x100000");
 291              		li a0,0x5555
 292              	# 0 "" 2
 293              		.loc 1 67 5 is_stmt 1
 294              		.loc 1 67 39 is_stmt 0
 295              	# 67 "src/maintst1.cpp" 1
  68              	    __asm__ volatile("sw a0, 0(a1)");
 296              		li a1,0x100000
 297              	# 0 "" 2
 298              		.loc 1 68 5 is_stmt 1
 299              		.loc 1 68 37 is_stmt 0
 300              	# 68 "src/maintst1.cpp" 1
  69              	    return 0;
 301              		sw a0, 0(a1)
 302              	# 0 "" 2
 303              		.loc 1 69 5 is_stmt 1
  70:src/maintst1.cpp **** }
 304              		.loc 1 70 1 is_stmt 0
 305              	#NO_APP
 306 01c0 13050000 		li	a0,0
 307 01c4 83308102 		ld	ra,40(sp)
 308              		.cfi_restore 1
 309 01c8 03340102 		ld	s0,32(sp)
 310              		.cfi_restore 8
 311              		.cfi_def_cfa 2, 48
 312 01cc 83348101 		ld	s1,24(sp)
 313              		.cfi_restore 9
 314 01d0 13010103 		addi	sp,sp,48
 315              		.cfi_def_cfa_offset 0
 316 01d4 67800000 		jr	ra
 317              		.cfi_endproc
 318              	.LFE45:
 320              		.globl	putcThread
 321              		.globl	idleThread
 322              		.globl	mainThread
 323              		.bss
 324              		.align	3
 325              		.set	.LANCHOR0,. + 0
 328              	mainThread:
 329 0000 00000000 		.zero	8
 329      00000000 
 332              	putcThread:
 333 0008 00000000 		.zero	8
 333      00000000 
 336              	idleThread:
 337 0010 00000000 		.zero	8
 337      00000000 
 338              		.text
 339              	.Letext0:
 340              		.file 4 "src/../h/../lib/hw.h"
 341              		.file 5 "src/../h/list.hpp"
 342              		.file 6 "src/../h/../h/MemAllocator.hpp"
 343              		.file 7 "src/../h/syscall_c.h"
 344              		.file 8 "src/../h/../h/../h/semaphore.hpp"
 345              		.file 9 "src/../h/../h/bufer.hpp"
 346              		.file 10 "src/../h/cconsole.hpp"
 347              		.file 11 "src/../h/../h/print.hpp"
GAS LISTING /tmp/ccnOeXXo.s 			page 12


GAS LISTING /tmp/ccnOeXXo.s 			page 13

