GAS LISTING /tmp/ccmnM2zG.s 			page 1


   1              		.file	"semaphore.cpp"
   2              		.option pic
   3              		.option norelax
   4              		.text
   5              	.Ltext0:
   6              		.align	2
   7              		.globl	_ZN9Semaphore7initSemEi
   9              	_ZN9Semaphore7initSemEi:
  10              	.LFB27:
  11              		.file 1 "src/semaphore.cpp"
   1:src/semaphore.cpp **** #include "../h/semaphore.hpp"
   2:src/semaphore.cpp **** 
   3:src/semaphore.cpp **** #include "../h/sleepList.hpp"
   4:src/semaphore.cpp **** 
   5:src/semaphore.cpp **** Semaphore* Semaphore::initSem(int val)
   6:src/semaphore.cpp **** {
  12              		.loc 1 6 1
  13              		.cfi_startproc
  14              	.LVL0:
  15 0000 130101FE 		addi	sp,sp,-32
  16              		.cfi_def_cfa_offset 32
  17 0004 233C1100 		sd	ra,24(sp)
  18 0008 23388100 		sd	s0,16(sp)
  19 000c 23349100 		sd	s1,8(sp)
  20              		.cfi_offset 1, -8
  21              		.cfi_offset 8, -16
  22              		.cfi_offset 9, -24
  23 0010 13040102 		addi	s0,sp,32
  24              		.cfi_def_cfa 8, 0
  25 0014 93040500 		mv	s1,a0
   7:src/semaphore.cpp ****     return new Semaphore(val);
  26              		.loc 1 7 5
  27              		.loc 1 7 29 is_stmt 0
  28 0018 13050002 		li	a0,32
  29              	.LVL1:
  30 001c 97000000 		call	_Znwm@plt
  30      E7800000 
  31              	.LVL2:
  32              	.LBB56:
  33              	.LBB57:
  34              		.file 2 "src/../h/semaphore.hpp"
   1:src/../h/semaphore.hpp **** //sem.hpp
   2:src/../h/semaphore.hpp **** #ifndef SEMAPHORE_HPP
   3:src/../h/semaphore.hpp **** #define SEMAPHORE_HPP
   4:src/../h/semaphore.hpp **** #include "list.hpp"
   5:src/../h/semaphore.hpp **** #include "tcb.hpp"
   6:src/../h/semaphore.hpp **** 
   7:src/../h/semaphore.hpp **** //273
   8:src/../h/semaphore.hpp **** class Semaphore
   9:src/../h/semaphore.hpp **** {
  10:src/../h/semaphore.hpp **** public:
  11:src/../h/semaphore.hpp **** 
  12:src/../h/semaphore.hpp ****     static Semaphore* initSem(int val);
  13:src/../h/semaphore.hpp **** 
  14:src/../h/semaphore.hpp ****     int close();
  15:src/../h/semaphore.hpp ****     int mwait();
  16:src/../h/semaphore.hpp ****     int msignal();
GAS LISTING /tmp/ccmnM2zG.s 			page 2


  17:src/../h/semaphore.hpp ****     int sem_timedwait(time_t timeout);
  18:src/../h/semaphore.hpp ****     int sem_trywait();
  19:src/../h/semaphore.hpp **** 
  20:src/../h/semaphore.hpp ****     int retValue () const
  21:src/../h/semaphore.hpp ****     {
  22:src/../h/semaphore.hpp ****         return value;
  23:src/../h/semaphore.hpp ****     }
  24:src/../h/semaphore.hpp **** 
  25:src/../h/semaphore.hpp ****     bool retClosed()
  26:src/../h/semaphore.hpp ****     {
  27:src/../h/semaphore.hpp ****         return closed;
  28:src/../h/semaphore.hpp ****     }
  29:src/../h/semaphore.hpp **** 
  30:src/../h/semaphore.hpp **** private:
  31:src/../h/semaphore.hpp ****     Semaphore(int val = 1) : value(val) {}
  35              		.loc 2 31 39
  36 0024 23209500 		sw	s1,0(a0)
  37              	.LVL3:
  38              	.LBB58:
  39              	.LBB59:
  40              		.file 3 "src/../h/list.hpp"
   1:src/../h/list.hpp **** #ifndef OS1_VEZBE07_RISCV_CONTEXT_SWITCH_2_INTERRUPT_LIST_HPP
   2:src/../h/list.hpp **** #define OS1_VEZBE07_RISCV_CONTEXT_SWITCH_2_INTERRUPT_LIST_HPP
   3:src/../h/list.hpp **** #include "../h/print.hpp"
   4:src/../h/list.hpp **** template<typename T>
   5:src/../h/list.hpp **** 
   6:src/../h/list.hpp **** //ulancana lista za scheduler
   7:src/../h/list.hpp **** 
   8:src/../h/list.hpp **** class List
   9:src/../h/list.hpp **** {
  10:src/../h/list.hpp **** private:
  11:src/../h/list.hpp ****     struct Elem
  12:src/../h/list.hpp ****     {
  13:src/../h/list.hpp ****         T *data;
  14:src/../h/list.hpp ****         Elem *next;
  15:src/../h/list.hpp **** 
  16:src/../h/list.hpp ****         Elem(T *data, Elem *next) : data(data), next(next) {}
  17:src/../h/list.hpp ****     };
  18:src/../h/list.hpp **** 
  19:src/../h/list.hpp ****     Elem *head, *tail;
  20:src/../h/list.hpp **** 
  21:src/../h/list.hpp **** public:
  22:src/../h/list.hpp ****     List() : head(0), tail(0) {}
  41              		.loc 3 22 29
  42 0028 23340500 		sd	zero,8(a0)
  43 002c 23380500 		sd	zero,16(a0)
  44              	.LVL4:
  45              	.LBE59:
  46              	.LBE58:
  47              		.loc 2 31 39
  48 0030 230C0500 		sb	zero,24(a0)
  49              	.LVL5:
  50              	.LBE57:
  51              	.LBE56:
   8:src/semaphore.cpp **** }
  52              		.loc 1 8 1
  53 0034 83308101 		ld	ra,24(sp)
GAS LISTING /tmp/ccmnM2zG.s 			page 3


  54              		.cfi_restore 1
  55 0038 03340101 		ld	s0,16(sp)
  56              		.cfi_restore 8
  57              		.cfi_def_cfa 2, 32
  58 003c 83348100 		ld	s1,8(sp)
  59              		.cfi_restore 9
  60 0040 13010102 		addi	sp,sp,32
  61              		.cfi_def_cfa_offset 0
  62 0044 67800000 		jr	ra
  63              		.cfi_endproc
  64              	.LFE27:
  66              		.align	2
  67              		.globl	_ZN9Semaphore5closeEv
  69              	_ZN9Semaphore5closeEv:
  70              	.LFB28:
   9:src/semaphore.cpp **** 
  10:src/semaphore.cpp **** int Semaphore::close()
  11:src/semaphore.cpp **** {
  71              		.loc 1 11 1 is_stmt 1
  72              		.cfi_startproc
  73              	.LVL6:
  12:src/semaphore.cpp ****     if(closed)
  74              		.loc 1 12 5
  75              		.loc 1 12 8 is_stmt 0
  76 0048 83478501 		lbu	a5,24(a0)
  77              		.loc 1 12 5
  78 004c 63960706 		bnez	a5,.L7
  11:src/semaphore.cpp ****     if(closed)
  79              		.loc 1 11 1
  80 0050 130101FE 		addi	sp,sp,-32
  81              		.cfi_def_cfa_offset 32
  82 0054 233C1100 		sd	ra,24(sp)
  83 0058 23388100 		sd	s0,16(sp)
  84 005c 23349100 		sd	s1,8(sp)
  85 0060 23302101 		sd	s2,0(sp)
  86              		.cfi_offset 1, -8
  87              		.cfi_offset 8, -16
  88              		.cfi_offset 9, -24
  89              		.cfi_offset 18, -32
  90 0064 13040102 		addi	s0,sp,32
  91              		.cfi_def_cfa 8, 0
  92 0068 93040500 		mv	s1,a0
  13:src/semaphore.cpp ****     {
  14:src/semaphore.cpp ****         return -1;
  15:src/semaphore.cpp ****     }
  16:src/semaphore.cpp ****     closed = true;
  93              		.loc 1 16 5 is_stmt 1
  94              		.loc 1 16 12 is_stmt 0
  95 006c 93071000 		li	a5,1
  96 0070 230CF500 		sb	a5,24(a0)
  97 0074 6F004002 		j	.L6
  98              	.LVL7:
  99              	.L14:
 100              	.LBB60:
 101              	.LBB61:
 102              	.LBB62:
  23:src/../h/list.hpp **** 
GAS LISTING /tmp/ccmnM2zG.s 			page 4


  24:src/../h/list.hpp ****     List(const List<T> &) = delete;
  25:src/../h/list.hpp **** 
  26:src/../h/list.hpp ****     List<T> &operator=(const List<T> &) = delete;
  27:src/../h/list.hpp **** 
  28:src/../h/list.hpp ****     void addFirst(T *data)
  29:src/../h/list.hpp ****     {
  30:src/../h/list.hpp ****         Elem *elem = new Elem(data, head);
  31:src/../h/list.hpp ****         head = elem;
  32:src/../h/list.hpp ****         if (!tail) { tail = head; }
  33:src/../h/list.hpp ****     }
  34:src/../h/list.hpp **** 
  35:src/../h/list.hpp ****     void addLast(T *data)
  36:src/../h/list.hpp ****     {
  37:src/../h/list.hpp ****         Elem *elem = new Elem(data, 0);
  38:src/../h/list.hpp ****         if (tail)
  39:src/../h/list.hpp ****         {
  40:src/../h/list.hpp ****             tail->next = elem;
  41:src/../h/list.hpp ****             tail = elem;
  42:src/../h/list.hpp ****         } else
  43:src/../h/list.hpp ****         {
  44:src/../h/list.hpp ****             head = tail = elem;
  45:src/../h/list.hpp ****         }
  46:src/../h/list.hpp ****     }
  47:src/../h/list.hpp **** 
  48:src/../h/list.hpp ****     T *removeFirst()
  49:src/../h/list.hpp ****     {
  50:src/../h/list.hpp ****         if (!head) { return 0; }
  51:src/../h/list.hpp **** 
  52:src/../h/list.hpp ****         Elem *elem = head;
  53:src/../h/list.hpp ****         head = head->next;
  54:src/../h/list.hpp ****         if (!head) { tail = 0; }
 103              		.loc 3 54 22
 104 0078 23B80400 		sd	zero,16(s1)
 105              	.L5:
  55:src/../h/list.hpp **** 
  56:src/../h/list.hpp ****         T *ret = elem->data;
 106              		.loc 3 56 12
 107 007c 03390500 		ld	s2,0(a0)
 108              	.LVL8:
  57:src/../h/list.hpp ****         delete elem;
 109              		.loc 3 57 9
 110 0080 97000000 		call	_ZdlPv@plt
 110      E7800000 
 111              	.LVL9:
 112              	.LBE62:
 113              	.LBE61:
  17:src/semaphore.cpp **** 
  18:src/semaphore.cpp ****     while(blocked.peekFirst())
  19:src/semaphore.cpp ****     {
  20:src/semaphore.cpp ****         TCB* tmp = blocked.removeFirst();
  21:src/semaphore.cpp ****         tmp->setStatus(0);
 114              		.loc 1 21 9 is_stmt 1
 115              	.LBB64:
 116              	.LBB65:
 117              		.file 4 "src/../h/tcb.hpp"
   1:src/../h/tcb.hpp **** #ifndef OS1_VEZBE07_RISCV_CONTEXT_SWITCH_2_INTERRUPT_TCB_HPP
   2:src/../h/tcb.hpp **** #define OS1_VEZBE07_RISCV_CONTEXT_SWITCH_2_INTERRUPT_TCB_HPP
GAS LISTING /tmp/ccmnM2zG.s 			page 5


   3:src/../h/tcb.hpp **** 
   4:src/../h/tcb.hpp **** #include "../lib/hw.h"
   5:src/../h/tcb.hpp **** #include "scheduler.hpp"
   6:src/../h/tcb.hpp **** #include "syscall_c.h"
   7:src/../h/tcb.hpp **** class TCB
   8:src/../h/tcb.hpp **** {
   9:src/../h/tcb.hpp **** public:
  10:src/../h/tcb.hpp **** 
  11:src/../h/tcb.hpp ****     void setStatus(int s) { status = s; }
 118              		.loc 4 11 29
 119              		.loc 4 11 36 is_stmt 0
 120 0088 232C0902 		sw	zero,56(s2)
 121              	.LVL10:
 122              	.LBE65:
 123              	.LBE64:
  22:src/semaphore.cpp ****         Scheduler::put(tmp);
 124              		.loc 1 22 9 is_stmt 1
 125              		.loc 1 22 23 is_stmt 0
 126 008c 13050900 		mv	a0,s2
 127 0090 97000000 		call	_ZN9Scheduler3putEP3TCB@plt
 127      E7800000 
 128              	.LVL11:
 129              	.L6:
 130              	.LBE60:
  18:src/semaphore.cpp ****     {
 131              		.loc 1 18 5 is_stmt 1
  18:src/semaphore.cpp ****     {
 132              		.loc 1 18 29
 133              	.LBB67:
 134              	.LBB68:
  58:src/../h/list.hpp ****         return ret;
  59:src/../h/list.hpp ****     }
  60:src/../h/list.hpp **** 
  61:src/../h/list.hpp ****     T *peekFirst()
  62:src/../h/list.hpp ****     {
  63:src/../h/list.hpp ****         if (!head) { return 0; }
 135              		.loc 3 63 14 is_stmt 0
 136 0098 03B58400 		ld	a0,8(s1)
 137              		.loc 3 63 9
 138 009c 63020502 		beqz	a0,.L8
  64:src/../h/list.hpp ****         return head->data;
 139              		.loc 3 64 22
 140 00a0 83370500 		ld	a5,0(a0)
 141              	.LVL12:
 142              	.LBE68:
 143              	.LBE67:
  18:src/semaphore.cpp ****     {
 144              		.loc 1 18 29
 145 00a4 638C0702 		beqz	a5,.L9
 146              	.LBB69:
  20:src/semaphore.cpp ****         tmp->setStatus(0);
 147              		.loc 1 20 9 is_stmt 1
 148              	.LVL13:
 149              	.LBB66:
 150              	.LBB63:
  53:src/../h/list.hpp ****         if (!head) { tail = 0; }
 151              		.loc 3 53 22 is_stmt 0
GAS LISTING /tmp/ccmnM2zG.s 			page 6


 152 00a8 83378500 		ld	a5,8(a0)
  53:src/../h/list.hpp ****         if (!head) { tail = 0; }
 153              		.loc 3 53 9
 154 00ac 23B4F400 		sd	a5,8(s1)
  54:src/../h/list.hpp **** 
 155              		.loc 3 54 9
 156 00b0 E39607FC 		bnez	a5,.L5
 157 00b4 6FF05FFC 		j	.L14
 158              	.LVL14:
 159              	.L7:
 160              		.cfi_def_cfa_register 2
 161              		.cfi_restore 1
 162              		.cfi_restore 8
 163              		.cfi_restore 9
 164              		.cfi_restore 18
 165              	.LBE63:
 166              	.LBE66:
 167              	.LBE69:
  14:src/semaphore.cpp ****     }
 168              		.loc 1 14 17
 169 00b8 1305F0FF 		li	a0,-1
 170              	.LVL15:
  23:src/semaphore.cpp ****     }
  24:src/semaphore.cpp ****     return 0;
  25:src/semaphore.cpp **** }
 171              		.loc 1 25 1
 172 00bc 67800000 		ret
 173              	.LVL16:
 174              	.L8:
 175              		.cfi_def_cfa_register 8
 176              		.cfi_offset 1, -8
 177              		.cfi_offset 8, -16
 178              		.cfi_offset 9, -24
 179              		.cfi_offset 18, -32
  24:src/semaphore.cpp **** }
 180              		.loc 1 24 12
 181 00c0 13050000 		li	a0,0
 182              	.LVL17:
 183              	.L4:
 184              		.loc 1 25 1
 185 00c4 83308101 		ld	ra,24(sp)
 186              		.cfi_remember_state
 187              		.cfi_restore 1
 188 00c8 03340101 		ld	s0,16(sp)
 189              		.cfi_restore 8
 190              		.cfi_def_cfa 2, 32
 191 00cc 83348100 		ld	s1,8(sp)
 192              		.cfi_restore 9
 193              	.LVL18:
 194 00d0 03390100 		ld	s2,0(sp)
 195              		.cfi_restore 18
 196 00d4 13010102 		addi	sp,sp,32
 197              		.cfi_def_cfa_offset 0
 198 00d8 67800000 		jr	ra
 199              	.LVL19:
 200              	.L9:
 201              		.cfi_restore_state
GAS LISTING /tmp/ccmnM2zG.s 			page 7


  24:src/semaphore.cpp **** }
 202              		.loc 1 24 12
 203 00dc 13050000 		li	a0,0
 204 00e0 6FF05FFE 		j	.L4
 205              		.cfi_endproc
 206              	.LFE28:
 208              		.align	2
 209              		.globl	_ZN9Semaphore5mwaitEv
 211              	_ZN9Semaphore5mwaitEv:
 212              	.LFB29:
  26:src/semaphore.cpp **** 
  27:src/semaphore.cpp **** int Semaphore::mwait()
  28:src/semaphore.cpp **** {
 213              		.loc 1 28 1 is_stmt 1
 214              		.cfi_startproc
 215              	.LVL20:
  29:src/semaphore.cpp ****     //lock
  30:src/semaphore.cpp ****     if(closed)
 216              		.loc 1 30 5
 217              		.loc 1 30 8 is_stmt 0
 218 00e4 83478501 		lbu	a5,24(a0)
 219              		.loc 1 30 5
 220 00e8 639E070A 		bnez	a5,.L19
  28:src/semaphore.cpp ****     //lock
 221              		.loc 1 28 1
 222 00ec 130101FE 		addi	sp,sp,-32
 223              		.cfi_def_cfa_offset 32
 224 00f0 233C1100 		sd	ra,24(sp)
 225 00f4 23388100 		sd	s0,16(sp)
 226 00f8 23349100 		sd	s1,8(sp)
 227 00fc 23302101 		sd	s2,0(sp)
 228              		.cfi_offset 1, -8
 229              		.cfi_offset 8, -16
 230              		.cfi_offset 9, -24
 231              		.cfi_offset 18, -32
 232 0100 13040102 		addi	s0,sp,32
 233              		.cfi_def_cfa 8, 0
 234 0104 93040500 		mv	s1,a0
  31:src/semaphore.cpp ****     {
  32:src/semaphore.cpp ****         return -1;
  33:src/semaphore.cpp ****     }
  34:src/semaphore.cpp ****     if(--value < 0)
 235              		.loc 1 34 5 is_stmt 1
 236              	.LBB70:
 237              		.loc 1 34 10 is_stmt 0
 238 0108 83270500 		lw	a5,0(a0)
 239              		.loc 1 34 8
 240 010c 9B87F7FF 		addiw	a5,a5,-1
 241              		.loc 1 34 16
 242 0110 2320F500 		sw	a5,0(a0)
 243              		.loc 1 34 5
 244 0114 13970702 		slli	a4,a5,32
 245 0118 63400702 		bltz	a4,.L26
 246              	.LBE70:
  35:src/semaphore.cpp ****     {
  36:src/semaphore.cpp ****         blocked.addLast(TCB::running);
  37:src/semaphore.cpp ****         int status = TCB::running->readStatus();
GAS LISTING /tmp/ccmnM2zG.s 			page 8


  38:src/semaphore.cpp ****         status = status | 1;
  39:src/semaphore.cpp **** 
  40:src/semaphore.cpp ****         TCB::running->setStatus(status);
  41:src/semaphore.cpp ****         thread_dispatch();
  42:src/semaphore.cpp ****         if(closed)
  43:src/semaphore.cpp ****         {
  44:src/semaphore.cpp ****             return -2;
  45:src/semaphore.cpp ****         }
  46:src/semaphore.cpp ****     }
  47:src/semaphore.cpp ****     //unlock
  48:src/semaphore.cpp ****     return 0;
 247              		.loc 1 48 12
 248 011c 13050000 		li	a0,0
 249              	.LVL21:
 250              	.L16:
  49:src/semaphore.cpp **** }
 251              		.loc 1 49 1
 252 0120 83308101 		ld	ra,24(sp)
 253              		.cfi_remember_state
 254              		.cfi_restore 1
 255 0124 03340101 		ld	s0,16(sp)
 256              		.cfi_restore 8
 257              		.cfi_def_cfa 2, 32
 258 0128 83348100 		ld	s1,8(sp)
 259              		.cfi_restore 9
 260              	.LVL22:
 261 012c 03390100 		ld	s2,0(sp)
 262              		.cfi_restore 18
 263 0130 13010102 		addi	sp,sp,32
 264              		.cfi_def_cfa_offset 0
 265 0134 67800000 		jr	ra
 266              	.LVL23:
 267              	.L26:
 268              		.cfi_restore_state
 269              	.LBB84:
 270              	.LBB71:
  36:src/semaphore.cpp ****         int status = TCB::running->readStatus();
 271              		.loc 1 36 9 is_stmt 1
  36:src/semaphore.cpp ****         int status = TCB::running->readStatus();
 272              		.loc 1 36 24 is_stmt 0
 273 0138 97070000 		la	a5,_ZN3TCB7runningE
 273      83B70700 
 274 0140 03B90700 		ld	s2,0(a5)
 275              	.LVL24:
 276              	.LBB72:
 277              	.LBB73:
  37:src/../h/list.hpp ****         if (tail)
 278              		.loc 3 37 22
 279 0144 13050001 		li	a0,16
 280 0148 97000000 		call	_Znwm@plt
 280      E7800000 
 281              	.LVL25:
 282              	.LBB74:
 283              	.LBB75:
  16:src/../h/list.hpp ****     };
 284              		.loc 3 16 58
 285 0150 23302501 		sd	s2,0(a0)
GAS LISTING /tmp/ccmnM2zG.s 			page 9


 286 0154 23340500 		sd	zero,8(a0)
 287              	.LVL26:
 288              	.LBE75:
 289              	.LBE74:
  38:src/../h/list.hpp ****         {
 290              		.loc 3 38 13
 291 0158 83B70401 		ld	a5,16(s1)
  38:src/../h/list.hpp ****         {
 292              		.loc 3 38 9
 293 015c 638E0702 		beqz	a5,.L17
  40:src/../h/list.hpp ****             tail = elem;
 294              		.loc 3 40 13
 295 0160 23B4A700 		sd	a0,8(a5)
  41:src/../h/list.hpp ****         } else
 296              		.loc 3 41 13
 297 0164 23B8A400 		sd	a0,16(s1)
 298              	.L18:
 299              	.LVL27:
 300              	.LBE73:
 301              	.LBE72:
  37:src/semaphore.cpp ****         status = status | 1;
 302              		.loc 1 37 9 is_stmt 1
  37:src/semaphore.cpp ****         status = status | 1;
 303              		.loc 1 37 46 is_stmt 0
 304 0168 97070000 		la	a5,_ZN3TCB7runningE
 304      83B70700 
 305 0170 03B70700 		ld	a4,0(a5)
 306              	.LVL28:
 307              	.LBB77:
 308              	.LBB78:
  12:src/../h/tcb.hpp ****     //s = 01 (1)blocked
  13:src/../h/tcb.hpp ****     //s = 10 (2)sleeping
  14:src/../h/tcb.hpp ****     //s = 11 (3)blocked i sleeping
  15:src/../h/tcb.hpp ****     int readStatus(){ return status; }
 309              		.loc 4 15 23 is_stmt 1
 310              		.loc 4 15 30 is_stmt 0
 311 0174 83278703 		lw	a5,56(a4)
 312              	.LVL29:
 313              	.LBE78:
 314              	.LBE77:
  38:src/semaphore.cpp **** 
 315              		.loc 1 38 9 is_stmt 1
  38:src/semaphore.cpp **** 
 316              		.loc 1 38 16 is_stmt 0
 317 0178 93E71700 		ori	a5,a5,1
 318              	.LVL30:
  40:src/semaphore.cpp ****         thread_dispatch();
 319              		.loc 1 40 9 is_stmt 1
 320              	.LBB79:
 321              	.LBB80:
  11:src/../h/tcb.hpp ****     //s = 01 (1)blocked
 322              		.loc 4 11 29
  11:src/../h/tcb.hpp ****     //s = 01 (1)blocked
 323              		.loc 4 11 36 is_stmt 0
 324 017c 232CF702 		sw	a5,56(a4)
 325              	.LVL31:
 326              	.LBE80:
GAS LISTING /tmp/ccmnM2zG.s 			page 10


 327              	.LBE79:
  41:src/semaphore.cpp ****         if(closed)
 328              		.loc 1 41 9 is_stmt 1
  41:src/semaphore.cpp ****         if(closed)
 329              		.loc 1 41 24 is_stmt 0
 330 0180 97000000 		call	_Z15thread_dispatchv@plt
 330      E7800000 
 331              	.LVL32:
  42:src/semaphore.cpp ****         {
 332              		.loc 1 42 9 is_stmt 1
  42:src/semaphore.cpp ****         {
 333              		.loc 1 42 12 is_stmt 0
 334 0188 83C78401 		lbu	a5,24(s1)
  42:src/semaphore.cpp ****         {
 335              		.loc 1 42 9
 336 018c 63900702 		bnez	a5,.L21
 337              	.LBE71:
 338              	.LBE84:
  48:src/semaphore.cpp **** }
 339              		.loc 1 48 12
 340 0190 13050000 		li	a0,0
 341 0194 6FF0DFF8 		j	.L16
 342              	.LVL33:
 343              	.L17:
 344              	.LBB85:
 345              	.LBB82:
 346              	.LBB81:
 347              	.LBB76:
  44:src/../h/list.hpp ****         }
 348              		.loc 3 44 13
 349 0198 23B8A400 		sd	a0,16(s1)
 350 019c 23B4A400 		sd	a0,8(s1)
 351 01a0 6FF09FFC 		j	.L18
 352              	.LVL34:
 353              	.L19:
 354              		.cfi_def_cfa_register 2
 355              		.cfi_restore 1
 356              		.cfi_restore 8
 357              		.cfi_restore 9
 358              		.cfi_restore 18
 359              	.LBE76:
 360              	.LBE81:
 361              	.LBE82:
 362              	.LBE85:
  32:src/semaphore.cpp ****     }
 363              		.loc 1 32 17
 364 01a4 1305F0FF 		li	a0,-1
 365              	.LVL35:
 366              		.loc 1 49 1
 367 01a8 67800000 		ret
 368              	.LVL36:
 369              	.L21:
 370              		.cfi_def_cfa_register 8
 371              		.cfi_offset 1, -8
 372              		.cfi_offset 8, -16
 373              		.cfi_offset 9, -24
 374              		.cfi_offset 18, -32
GAS LISTING /tmp/ccmnM2zG.s 			page 11


 375              	.LBB86:
 376              	.LBB83:
  44:src/semaphore.cpp ****         }
 377              		.loc 1 44 21
 378 01ac 1305E0FF 		li	a0,-2
 379 01b0 6FF01FF7 		j	.L16
 380              	.LBE83:
 381              	.LBE86:
 382              		.cfi_endproc
 383              	.LFE29:
 385              		.align	2
 386              		.globl	_ZN9Semaphore7msignalEv
 388              	_ZN9Semaphore7msignalEv:
 389              	.LFB30:
  50:src/semaphore.cpp **** 
  51:src/semaphore.cpp **** int Semaphore::msignal()
  52:src/semaphore.cpp **** {
 390              		.loc 1 52 1 is_stmt 1
 391              		.cfi_startproc
 392              	.LVL37:
  53:src/semaphore.cpp ****     if(closed)
 393              		.loc 1 53 5
 394              		.loc 1 53 8 is_stmt 0
 395 01b4 03478501 		lbu	a4,24(a0)
 396              		.loc 1 53 5
 397 01b8 63180708 		bnez	a4,.L30
 398 01bc 93070500 		mv	a5,a0
  54:src/semaphore.cpp ****     {
  55:src/semaphore.cpp ****         return -1;
  56:src/semaphore.cpp ****     }
  57:src/semaphore.cpp ****     if(++value <= 0)
 399              		.loc 1 57 5 is_stmt 1
 400              	.LBB87:
 401              		.loc 1 57 10 is_stmt 0
 402 01c0 03270500 		lw	a4,0(a0)
 403              		.loc 1 57 8
 404 01c4 1B071700 		addiw	a4,a4,1
 405 01c8 9B060700 		sext.w	a3,a4
 406              		.loc 1 57 16
 407 01cc 2320E500 		sw	a4,0(a0)
 408              		.loc 1 57 5
 409 01d0 6340D008 		bgtz	a3,.L31
 410              	.LBB88:
  58:src/semaphore.cpp ****     {
  59:src/semaphore.cpp ****         TCB* tmp = blocked.removeFirst();
 411              		.loc 1 59 9 is_stmt 1
 412              	.LVL38:
 413              	.LBB89:
 414              	.LBB90:
  50:src/../h/list.hpp **** 
 415              		.loc 3 50 14 is_stmt 0
 416 01d4 03358500 		ld	a0,8(a0)
 417              	.LVL39:
  50:src/../h/list.hpp **** 
 418              		.loc 3 50 9
 419 01d8 63000508 		beqz	a0,.L32
 420              	.LBE90:
GAS LISTING /tmp/ccmnM2zG.s 			page 12


 421              	.LBE89:
 422              	.LBE88:
 423              	.LBE87:
  52:src/semaphore.cpp ****     if(closed)
 424              		.loc 1 52 1
 425 01dc 130101FE 		addi	sp,sp,-32
 426              		.cfi_def_cfa_offset 32
 427 01e0 233C1100 		sd	ra,24(sp)
 428 01e4 23388100 		sd	s0,16(sp)
 429 01e8 23349100 		sd	s1,8(sp)
 430              		.cfi_offset 1, -8
 431              		.cfi_offset 8, -16
 432              		.cfi_offset 9, -24
 433 01ec 13040102 		addi	s0,sp,32
 434              		.cfi_def_cfa 8, 0
 435              	.LVL40:
 436              	.LBB103:
 437              	.LBB101:
 438              	.LBB93:
 439              	.LBB91:
  53:src/../h/list.hpp ****         if (!head) { tail = 0; }
 440              		.loc 3 53 22
 441 01f0 03378500 		ld	a4,8(a0)
  53:src/../h/list.hpp ****         if (!head) { tail = 0; }
 442              		.loc 3 53 9
 443 01f4 23B4E700 		sd	a4,8(a5)
  54:src/../h/list.hpp **** 
 444              		.loc 3 54 9
 445 01f8 63040704 		beqz	a4,.L39
 446              	.L29:
  56:src/../h/list.hpp ****         delete elem;
 447              		.loc 3 56 12
 448 01fc 83340500 		ld	s1,0(a0)
 449              	.LVL41:
  57:src/../h/list.hpp ****         return ret;
 450              		.loc 3 57 9
 451 0200 97000000 		call	_ZdlPv@plt
 451      E7800000 
 452              	.LVL42:
 453              	.LBE91:
 454              	.LBE93:
  60:src/semaphore.cpp ****         if(tmp)
 455              		.loc 1 60 9 is_stmt 1
 456              	.LBB94:
 457 0208 638C0404 		beqz	s1,.L33
 458              	.LBB95:
  61:src/semaphore.cpp ****         {
  62:src/semaphore.cpp ****             int status = tmp->readStatus();
 459              		.loc 1 62 13
 460              	.LVL43:
 461              	.LBB96:
 462              	.LBB97:
 463              		.loc 4 15 23
 464              		.loc 4 15 30 is_stmt 0
 465 020c 83A78403 		lw	a5,56(s1)
 466              	.LVL44:
 467              	.LBE97:
GAS LISTING /tmp/ccmnM2zG.s 			page 13


 468              	.LBE96:
  63:src/semaphore.cpp ****             status = status & 1;
 469              		.loc 1 63 13 is_stmt 1
 470              		.loc 1 63 20 is_stmt 0
 471 0210 93F71700 		andi	a5,a5,1
 472              	.LVL45:
  64:src/semaphore.cpp ****             if(status)
 473              		.loc 1 64 13 is_stmt 1
 474 0214 638A0704 		beqz	a5,.L34
  65:src/semaphore.cpp ****             {
  66:src/semaphore.cpp ****                 tmp->setStatus(0);
 475              		.loc 1 66 17
 476              	.LVL46:
 477              	.LBB98:
 478              	.LBB99:
  11:src/../h/tcb.hpp ****     //s = 01 (1)blocked
 479              		.loc 4 11 29
  11:src/../h/tcb.hpp ****     //s = 01 (1)blocked
 480              		.loc 4 11 36 is_stmt 0
 481 0218 23AC0402 		sw	zero,56(s1)
 482              	.LVL47:
 483              	.LBE99:
 484              	.LBE98:
  67:src/semaphore.cpp ****                 Scheduler::put(tmp);
 485              		.loc 1 67 17 is_stmt 1
 486              		.loc 1 67 31 is_stmt 0
 487 021c 13850400 		mv	a0,s1
 488 0220 97000000 		call	_ZN9Scheduler3putEP3TCB@plt
 488      E7800000 
 489              	.LVL48:
  68:src/semaphore.cpp ****                 return 0;
 490              		.loc 1 68 17 is_stmt 1
 491              		.loc 1 68 24 is_stmt 0
 492 0228 13050000 		li	a0,0
 493              	.L28:
 494              	.LVL49:
 495              	.LBE95:
 496              	.LBE94:
 497              	.LBE101:
 498              	.LBE103:
  69:src/semaphore.cpp ****             }
  70:src/semaphore.cpp ****         }
  71:src/semaphore.cpp ****     }
  72:src/semaphore.cpp ****     return -2;
  73:src/semaphore.cpp **** }
 499              		.loc 1 73 1
 500 022c 83308101 		ld	ra,24(sp)
 501              		.cfi_remember_state
 502              		.cfi_restore 1
 503 0230 03340101 		ld	s0,16(sp)
 504              		.cfi_restore 8
 505              		.cfi_def_cfa 2, 32
 506 0234 83348100 		ld	s1,8(sp)
 507              		.cfi_restore 9
 508 0238 13010102 		addi	sp,sp,32
 509              		.cfi_def_cfa_offset 0
 510 023c 67800000 		jr	ra
GAS LISTING /tmp/ccmnM2zG.s 			page 14


 511              	.LVL50:
 512              	.L39:
 513              		.cfi_restore_state
 514              	.LBB104:
 515              	.LBB102:
 516              	.LBB100:
 517              	.LBB92:
  54:src/../h/list.hpp **** 
 518              		.loc 3 54 22
 519 0240 23B80700 		sd	zero,16(a5)
 520 0244 6FF09FFB 		j	.L29
 521              	.LVL51:
 522              	.L30:
 523              		.cfi_def_cfa_register 2
 524              		.cfi_restore 1
 525              		.cfi_restore 8
 526              		.cfi_restore 9
 527              	.LBE92:
 528              	.LBE100:
 529              	.LBE102:
 530              	.LBE104:
  55:src/semaphore.cpp ****     }
 531              		.loc 1 55 17
 532 0248 1305F0FF 		li	a0,-1
 533              	.LVL52:
 534 024c 67800000 		ret
 535              	.LVL53:
 536              	.L31:
  72:src/semaphore.cpp **** }
 537              		.loc 1 72 13
 538 0250 1305E0FF 		li	a0,-2
 539              	.LVL54:
 540 0254 67800000 		ret
 541              	.LVL55:
 542              	.L32:
 543 0258 1305E0FF 		li	a0,-2
 544              	.LVL56:
 545              		.loc 1 73 1
 546 025c 67800000 		ret
 547              	.LVL57:
 548              	.L33:
 549              		.cfi_def_cfa_register 8
 550              		.cfi_offset 1, -8
 551              		.cfi_offset 8, -16
 552              		.cfi_offset 9, -24
  72:src/semaphore.cpp **** }
 553              		.loc 1 72 13
 554 0260 1305E0FF 		li	a0,-2
 555 0264 6FF09FFC 		j	.L28
 556              	.LVL58:
 557              	.L34:
 558 0268 1305E0FF 		li	a0,-2
 559 026c 6FF01FFC 		j	.L28
 560              		.cfi_endproc
 561              	.LFE30:
 563              		.align	2
 564              		.globl	_ZN9Semaphore13sem_timedwaitEm
GAS LISTING /tmp/ccmnM2zG.s 			page 15


 566              	_ZN9Semaphore13sem_timedwaitEm:
 567              	.LFB31:
  74:src/semaphore.cpp **** 
  75:src/semaphore.cpp **** int Semaphore::sem_timedwait(time_t timeout)
  76:src/semaphore.cpp **** {
 568              		.loc 1 76 1 is_stmt 1
 569              		.cfi_startproc
 570              	.LVL59:
  77:src/semaphore.cpp ****     if(closed)
 571              		.loc 1 77 5
 572              		.loc 1 77 8 is_stmt 0
 573 0270 83478501 		lbu	a5,24(a0)
 574              		.loc 1 77 5
 575 0274 639C070E 		bnez	a5,.L44
  76:src/semaphore.cpp ****     if(closed)
 576              		.loc 1 76 1
 577 0278 130101FD 		addi	sp,sp,-48
 578              		.cfi_def_cfa_offset 48
 579 027c 23341102 		sd	ra,40(sp)
 580 0280 23308102 		sd	s0,32(sp)
 581 0284 233C9100 		sd	s1,24(sp)
 582 0288 23382101 		sd	s2,16(sp)
 583 028c 23343101 		sd	s3,8(sp)
 584              		.cfi_offset 1, -8
 585              		.cfi_offset 8, -16
 586              		.cfi_offset 9, -24
 587              		.cfi_offset 18, -32
 588              		.cfi_offset 19, -40
 589 0290 13040103 		addi	s0,sp,48
 590              		.cfi_def_cfa 8, 0
 591 0294 93040500 		mv	s1,a0
 592 0298 13890500 		mv	s2,a1
  78:src/semaphore.cpp ****     {
  79:src/semaphore.cpp ****         return -1;
  80:src/semaphore.cpp ****     }
  81:src/semaphore.cpp ****     if(--value < 0)
 593              		.loc 1 81 5 is_stmt 1
 594              		.loc 1 81 10 is_stmt 0
 595 029c 83270500 		lw	a5,0(a0)
 596              		.loc 1 81 8
 597 02a0 9B87F7FF 		addiw	a5,a5,-1
 598              		.loc 1 81 16
 599 02a4 2320F500 		sw	a5,0(a0)
 600              		.loc 1 81 5
 601 02a8 13970702 		slli	a4,a5,32
 602 02ac 63420702 		bltz	a4,.L54
  82:src/semaphore.cpp ****     {
  83:src/semaphore.cpp ****         if(TCB::running->readStatus() == 2 || TCB::running->readStatus() == 3)
  84:src/semaphore.cpp ****         {
  85:src/semaphore.cpp ****             return -1;
  86:src/semaphore.cpp ****         }
  87:src/semaphore.cpp ****         blocked.addLast(TCB::running);
  88:src/semaphore.cpp ****         //i blokiran i spava
  89:src/semaphore.cpp ****         TCB::running->setStatus(3);
  90:src/semaphore.cpp ****         sleepList::add(TCB::running, timeout);
  91:src/semaphore.cpp ****         thread_dispatch();
  92:src/semaphore.cpp **** 
GAS LISTING /tmp/ccmnM2zG.s 			page 16


  93:src/semaphore.cpp ****         if(closed)
  94:src/semaphore.cpp ****         {
  95:src/semaphore.cpp ****             return -2;
  96:src/semaphore.cpp ****         }
  97:src/semaphore.cpp ****         //if(TCB::running->readStatus() == 3 || TCB::running->readStatus() == 1)
  98:src/semaphore.cpp ****         if(TCB::running->readStatus() != 0)
  99:src/semaphore.cpp ****         {
 100:src/semaphore.cpp ****             return -3;
 101:src/semaphore.cpp ****         }
 102:src/semaphore.cpp ****     }
 103:src/semaphore.cpp ****     return 0;
 603              		.loc 1 103 12
 604 02b0 13050000 		li	a0,0
 605              	.LVL60:
 606              	.L41:
 104:src/semaphore.cpp **** }
 607              		.loc 1 104 1
 608 02b4 83308102 		ld	ra,40(sp)
 609              		.cfi_remember_state
 610              		.cfi_restore 1
 611 02b8 03340102 		ld	s0,32(sp)
 612              		.cfi_restore 8
 613              		.cfi_def_cfa 2, 48
 614 02bc 83348101 		ld	s1,24(sp)
 615              		.cfi_restore 9
 616              	.LVL61:
 617 02c0 03390101 		ld	s2,16(sp)
 618              		.cfi_restore 18
 619              	.LVL62:
 620 02c4 83398100 		ld	s3,8(sp)
 621              		.cfi_restore 19
 622 02c8 13010103 		addi	sp,sp,48
 623              		.cfi_def_cfa_offset 0
 624 02cc 67800000 		jr	ra
 625              	.LVL63:
 626              	.L54:
 627              		.cfi_restore_state
  83:src/semaphore.cpp ****         {
 628              		.loc 1 83 9 is_stmt 1
  83:src/semaphore.cpp ****         {
 629              		.loc 1 83 36 is_stmt 0
 630 02d0 97070000 		la	a5,_ZN3TCB7runningE
 630      83B70700 
 631 02d8 83B90700 		ld	s3,0(a5)
 632              	.LVL64:
 633              	.LBB105:
 634              	.LBB106:
 635              		.loc 4 15 23 is_stmt 1
 636              		.loc 4 15 30 is_stmt 0
 637 02dc 83A78903 		lw	a5,56(s3)
 638              	.LVL65:
 639              	.LBE106:
 640              	.LBE105:
  83:src/semaphore.cpp ****         {
 641              		.loc 1 83 44
 642 02e0 13072000 		li	a4,2
 643 02e4 6388E708 		beq	a5,a4,.L46
GAS LISTING /tmp/ccmnM2zG.s 			page 17


 644              	.LVL66:
 645              		.loc 4 15 23 is_stmt 1 discriminator 2
  83:src/semaphore.cpp ****         {
 646              		.loc 1 83 44 is_stmt 0 discriminator 2
 647 02e8 13073000 		li	a4,3
 648 02ec 6388E708 		beq	a5,a4,.L47
  87:src/semaphore.cpp ****         //i blokiran i spava
 649              		.loc 1 87 9 is_stmt 1
 650              	.LVL67:
 651              	.LBB107:
 652              	.LBB108:
  37:src/../h/list.hpp ****         if (tail)
 653              		.loc 3 37 22 is_stmt 0
 654 02f0 13050001 		li	a0,16
 655 02f4 97000000 		call	_Znwm@plt
 655      E7800000 
 656              	.LVL68:
 657              	.LBB109:
 658              	.LBB110:
  16:src/../h/list.hpp ****     };
 659              		.loc 3 16 58
 660 02fc 23303501 		sd	s3,0(a0)
 661 0300 23340500 		sd	zero,8(a0)
 662              	.LVL69:
 663              	.LBE110:
 664              	.LBE109:
  38:src/../h/list.hpp ****         {
 665              		.loc 3 38 13
 666 0304 83B70401 		ld	a5,16(s1)
  38:src/../h/list.hpp ****         {
 667              		.loc 3 38 9
 668 0308 638C0704 		beqz	a5,.L42
  40:src/../h/list.hpp ****             tail = elem;
 669              		.loc 3 40 13
 670 030c 23B4A700 		sd	a0,8(a5)
  41:src/../h/list.hpp ****         } else
 671              		.loc 3 41 13
 672 0310 23B8A400 		sd	a0,16(s1)
 673              	.L43:
 674              	.LVL70:
 675              	.LBE108:
 676              	.LBE107:
  89:src/semaphore.cpp ****         sleepList::add(TCB::running, timeout);
 677              		.loc 1 89 9 is_stmt 1
  89:src/semaphore.cpp ****         sleepList::add(TCB::running, timeout);
 678              		.loc 1 89 32 is_stmt 0
 679 0314 97070000 		la	a5,_ZN3TCB7runningE
 679      83B70700 
 680 031c 03B50700 		ld	a0,0(a5)
 681              	.LVL71:
 682              	.LBB112:
 683              	.LBB113:
  11:src/../h/tcb.hpp ****     //s = 01 (1)blocked
 684              		.loc 4 11 29 is_stmt 1
  11:src/../h/tcb.hpp ****     //s = 01 (1)blocked
 685              		.loc 4 11 36 is_stmt 0
 686 0320 93073000 		li	a5,3
GAS LISTING /tmp/ccmnM2zG.s 			page 18


 687 0324 232CF502 		sw	a5,56(a0)
 688              	.LVL72:
 689              	.LBE113:
 690              	.LBE112:
  90:src/semaphore.cpp ****         thread_dispatch();
 691              		.loc 1 90 9 is_stmt 1
  90:src/semaphore.cpp ****         thread_dispatch();
 692              		.loc 1 90 23 is_stmt 0
 693 0328 93050900 		mv	a1,s2
 694 032c 97000000 		call	_ZN9sleepList3addEP3TCBm@plt
 694      E7800000 
 695              	.LVL73:
  91:src/semaphore.cpp **** 
 696              		.loc 1 91 9 is_stmt 1
  91:src/semaphore.cpp **** 
 697              		.loc 1 91 24 is_stmt 0
 698 0334 97000000 		call	_Z15thread_dispatchv@plt
 698      E7800000 
 699              	.LVL74:
  93:src/semaphore.cpp ****         {
 700              		.loc 1 93 9 is_stmt 1
  93:src/semaphore.cpp ****         {
 701              		.loc 1 93 12 is_stmt 0
 702 033c 83C78401 		lbu	a5,24(s1)
  93:src/semaphore.cpp ****         {
 703              		.loc 1 93 9
 704 0340 63920704 		bnez	a5,.L48
  98:src/semaphore.cpp ****         {
 705              		.loc 1 98 9 is_stmt 1
  98:src/semaphore.cpp ****         {
 706              		.loc 1 98 36 is_stmt 0
 707 0344 97070000 		la	a5,_ZN3TCB7runningE
 707      83B70700 
 708 034c 83B70700 		ld	a5,0(a5)
 709              	.LVL75:
 710              	.LBB114:
 711              	.LBB115:
 712              		.loc 4 15 23 is_stmt 1
 713              		.loc 4 15 30 is_stmt 0
 714 0350 03A58703 		lw	a0,56(a5)
 715              	.LVL76:
 716              	.LBE115:
 717              	.LBE114:
  98:src/semaphore.cpp ****         {
 718              		.loc 1 98 9
 719 0354 E30005F6 		beqz	a0,.L41
 100:src/semaphore.cpp ****         }
 720              		.loc 1 100 21
 721 0358 1305D0FF 		li	a0,-3
 722 035c 6FF09FF5 		j	.L41
 723              	.LVL77:
 724              	.L42:
 725              	.LBB116:
 726              	.LBB111:
  44:src/../h/list.hpp ****         }
 727              		.loc 3 44 13
 728 0360 23B8A400 		sd	a0,16(s1)
GAS LISTING /tmp/ccmnM2zG.s 			page 19


 729 0364 23B4A400 		sd	a0,8(s1)
 730 0368 6FF0DFFA 		j	.L43
 731              	.LVL78:
 732              	.L44:
 733              		.cfi_def_cfa_register 2
 734              		.cfi_restore 1
 735              		.cfi_restore 8
 736              		.cfi_restore 9
 737              		.cfi_restore 18
 738              		.cfi_restore 19
 739              	.LBE111:
 740              	.LBE116:
  79:src/semaphore.cpp ****     }
 741              		.loc 1 79 17
 742 036c 1305F0FF 		li	a0,-1
 743              	.LVL79:
 744              		.loc 1 104 1
 745 0370 67800000 		ret
 746              	.LVL80:
 747              	.L46:
 748              		.cfi_def_cfa_register 8
 749              		.cfi_offset 1, -8
 750              		.cfi_offset 8, -16
 751              		.cfi_offset 9, -24
 752              		.cfi_offset 18, -32
 753              		.cfi_offset 19, -40
  85:src/semaphore.cpp ****         }
 754              		.loc 1 85 21
 755 0374 1305F0FF 		li	a0,-1
 756 0378 6FF0DFF3 		j	.L41
 757              	.L47:
 758 037c 1305F0FF 		li	a0,-1
 759 0380 6FF05FF3 		j	.L41
 760              	.LVL81:
 761              	.L48:
  95:src/semaphore.cpp ****         }
 762              		.loc 1 95 21
 763 0384 1305E0FF 		li	a0,-2
 764 0388 6FF0DFF2 		j	.L41
 765              		.cfi_endproc
 766              	.LFE31:
 768              		.align	2
 769              		.globl	_ZN9Semaphore11sem_trywaitEv
 771              	_ZN9Semaphore11sem_trywaitEv:
 772              	.LFB32:
 105:src/semaphore.cpp **** int Semaphore::sem_trywait()
 106:src/semaphore.cpp **** {
 773              		.loc 1 106 1 is_stmt 1
 774              		.cfi_startproc
 775              	.LVL82:
 776 038c 130101FF 		addi	sp,sp,-16
 777              		.cfi_def_cfa_offset 16
 778 0390 23348100 		sd	s0,8(sp)
 779              		.cfi_offset 8, -8
 780 0394 13040101 		addi	s0,sp,16
 781              		.cfi_def_cfa 8, 0
 107:src/semaphore.cpp ****     if(closed)
GAS LISTING /tmp/ccmnM2zG.s 			page 20


 782              		.loc 1 107 5
 783              		.loc 1 107 8 is_stmt 0
 784 0398 83478501 		lbu	a5,24(a0)
 785              		.loc 1 107 5
 786 039c 63960702 		bnez	a5,.L57
 108:src/semaphore.cpp ****     {
 109:src/semaphore.cpp ****         return -1;
 110:src/semaphore.cpp ****     }
 111:src/semaphore.cpp ****     if(value > 0)
 787              		.loc 1 111 5 is_stmt 1
 788              		.loc 1 111 8 is_stmt 0
 789 03a0 83270500 		lw	a5,0(a0)
 790              		.loc 1 111 5
 791 03a4 634AF000 		bgtz	a5,.L60
 112:src/semaphore.cpp ****     {
 113:src/semaphore.cpp ****         value--;
 114:src/semaphore.cpp ****         return 1;
 115:src/semaphore.cpp ****     }
 116:src/semaphore.cpp ****     return 0;
 792              		.loc 1 116 12
 793 03a8 13050000 		li	a0,0
 794              	.LVL83:
 795              	.L56:
 117:src/semaphore.cpp **** }
 796              		.loc 1 117 1
 797 03ac 03348100 		ld	s0,8(sp)
 798              		.cfi_remember_state
 799              		.cfi_restore 8
 800              		.cfi_def_cfa 2, 16
 801 03b0 13010101 		addi	sp,sp,16
 802              		.cfi_def_cfa_offset 0
 803 03b4 67800000 		jr	ra
 804              	.LVL84:
 805              	.L60:
 806              		.cfi_restore_state
 113:src/semaphore.cpp ****         return 1;
 807              		.loc 1 113 9 is_stmt 1
 113:src/semaphore.cpp ****         return 1;
 808              		.loc 1 113 14 is_stmt 0
 809 03b8 9B87F7FF 		addiw	a5,a5,-1
 810 03bc 2320F500 		sw	a5,0(a0)
 114:src/semaphore.cpp ****     }
 811              		.loc 1 114 9 is_stmt 1
 114:src/semaphore.cpp ****     }
 812              		.loc 1 114 16 is_stmt 0
 813 03c0 13051000 		li	a0,1
 814              	.LVL85:
 815 03c4 6FF09FFE 		j	.L56
 816              	.LVL86:
 817              	.L57:
 109:src/semaphore.cpp ****     }
 818              		.loc 1 109 17
 819 03c8 1305F0FF 		li	a0,-1
 820              	.LVL87:
 821 03cc 6FF01FFE 		j	.L56
 822              		.cfi_endproc
 823              	.LFE32:
GAS LISTING /tmp/ccmnM2zG.s 			page 21


 825              	.Letext0:
 826              		.file 5 "src/../h/../h/../lib/hw.h"
 827              		.file 6 "src/../h/scheduler.hpp"
 828              		.file 7 "src/../h/sleepList.hpp"
 829              		.file 8 "src/../h/syscall_c.h"
GAS LISTING /tmp/ccmnM2zG.s 			page 22


DEFINED SYMBOLS
                            *ABS*:0000000000000000 semaphore.cpp
     /tmp/ccmnM2zG.s:9      .text:0000000000000000 _ZN9Semaphore7initSemEi
     /tmp/ccmnM2zG.s:13     .text:0000000000000000 .L0 
     /tmp/ccmnM2zG.s:15     .text:0000000000000000 .L0 
     /tmp/ccmnM2zG.s:16     .text:0000000000000004 .L0 
     /tmp/ccmnM2zG.s:20     .text:0000000000000010 .L0 
     /tmp/ccmnM2zG.s:21     .text:0000000000000010 .L0 
     /tmp/ccmnM2zG.s:22     .text:0000000000000010 .L0 
     /tmp/ccmnM2zG.s:24     .text:0000000000000014 .L0 
     /tmp/ccmnM2zG.s:27     .text:0000000000000018 .L0 
     /tmp/ccmnM2zG.s:28     .text:0000000000000018 .L0 
     /tmp/ccmnM2zG.s:36     .text:0000000000000024 .L0 
     /tmp/ccmnM2zG.s:42     .text:0000000000000028 .L0 
     /tmp/ccmnM2zG.s:48     .text:0000000000000030 .L0 
     /tmp/ccmnM2zG.s:53     .text:0000000000000034 .L0 
     /tmp/ccmnM2zG.s:54     .text:0000000000000038 .L0 
     /tmp/ccmnM2zG.s:56     .text:000000000000003c .L0 
     /tmp/ccmnM2zG.s:57     .text:000000000000003c .L0 
     /tmp/ccmnM2zG.s:59     .text:0000000000000040 .L0 
     /tmp/ccmnM2zG.s:61     .text:0000000000000044 .L0 
     /tmp/ccmnM2zG.s:63     .text:0000000000000048 .L0 
     /tmp/ccmnM2zG.s:69     .text:0000000000000048 _ZN9Semaphore5closeEv
     /tmp/ccmnM2zG.s:72     .text:0000000000000048 .L0 
     /tmp/ccmnM2zG.s:74     .text:0000000000000048 .L0 
     /tmp/ccmnM2zG.s:75     .text:0000000000000048 .L0 
     /tmp/ccmnM2zG.s:76     .text:0000000000000048 .L0 
     /tmp/ccmnM2zG.s:78     .text:000000000000004c .L0 
     /tmp/ccmnM2zG.s:80     .text:0000000000000050 .L0 
     /tmp/ccmnM2zG.s:81     .text:0000000000000054 .L0 
     /tmp/ccmnM2zG.s:86     .text:0000000000000064 .L0 
     /tmp/ccmnM2zG.s:87     .text:0000000000000064 .L0 
     /tmp/ccmnM2zG.s:88     .text:0000000000000064 .L0 
     /tmp/ccmnM2zG.s:89     .text:0000000000000064 .L0 
     /tmp/ccmnM2zG.s:91     .text:0000000000000068 .L0 
     /tmp/ccmnM2zG.s:94     .text:000000000000006c .L0 
     /tmp/ccmnM2zG.s:95     .text:000000000000006c .L0 
     /tmp/ccmnM2zG.s:104    .text:0000000000000078 .L0 
     /tmp/ccmnM2zG.s:107    .text:000000000000007c .L0 
     /tmp/ccmnM2zG.s:110    .text:0000000000000080 .L0 
     /tmp/ccmnM2zG.s:118    .text:0000000000000088 .L0 
     /tmp/ccmnM2zG.s:119    .text:0000000000000088 .L0 
     /tmp/ccmnM2zG.s:120    .text:0000000000000088 .L0 
     /tmp/ccmnM2zG.s:125    .text:000000000000008c .L0 
     /tmp/ccmnM2zG.s:126    .text:000000000000008c .L0 
     /tmp/ccmnM2zG.s:132    .text:0000000000000098 .L0 
     /tmp/ccmnM2zG.s:135    .text:0000000000000098 .L0 
     /tmp/ccmnM2zG.s:136    .text:0000000000000098 .L0 
     /tmp/ccmnM2zG.s:138    .text:000000000000009c .L0 
     /tmp/ccmnM2zG.s:140    .text:00000000000000a0 .L0 
     /tmp/ccmnM2zG.s:145    .text:00000000000000a4 .L0 
     /tmp/ccmnM2zG.s:151    .text:00000000000000a8 .L0 
     /tmp/ccmnM2zG.s:152    .text:00000000000000a8 .L0 
     /tmp/ccmnM2zG.s:154    .text:00000000000000ac .L0 
     /tmp/ccmnM2zG.s:156    .text:00000000000000b0 .L0 
     /tmp/ccmnM2zG.s:160    .text:00000000000000b8 .L0 
     /tmp/ccmnM2zG.s:161    .text:00000000000000b8 .L0 
GAS LISTING /tmp/ccmnM2zG.s 			page 23


     /tmp/ccmnM2zG.s:162    .text:00000000000000b8 .L0 
     /tmp/ccmnM2zG.s:163    .text:00000000000000b8 .L0 
     /tmp/ccmnM2zG.s:164    .text:00000000000000b8 .L0 
     /tmp/ccmnM2zG.s:169    .text:00000000000000b8 .L0 
     /tmp/ccmnM2zG.s:172    .text:00000000000000bc .L0 
     /tmp/ccmnM2zG.s:175    .text:00000000000000c0 .L0 
     /tmp/ccmnM2zG.s:176    .text:00000000000000c0 .L0 
     /tmp/ccmnM2zG.s:177    .text:00000000000000c0 .L0 
     /tmp/ccmnM2zG.s:178    .text:00000000000000c0 .L0 
     /tmp/ccmnM2zG.s:179    .text:00000000000000c0 .L0 
     /tmp/ccmnM2zG.s:181    .text:00000000000000c0 .L0 
     /tmp/ccmnM2zG.s:185    .text:00000000000000c4 .L0 
     /tmp/ccmnM2zG.s:186    .text:00000000000000c8 .L0 
     /tmp/ccmnM2zG.s:187    .text:00000000000000c8 .L0 
     /tmp/ccmnM2zG.s:189    .text:00000000000000cc .L0 
     /tmp/ccmnM2zG.s:190    .text:00000000000000cc .L0 
     /tmp/ccmnM2zG.s:192    .text:00000000000000d0 .L0 
     /tmp/ccmnM2zG.s:195    .text:00000000000000d4 .L0 
     /tmp/ccmnM2zG.s:197    .text:00000000000000d8 .L0 
     /tmp/ccmnM2zG.s:201    .text:00000000000000dc .L0 
     /tmp/ccmnM2zG.s:203    .text:00000000000000dc .L0 
     /tmp/ccmnM2zG.s:205    .text:00000000000000e4 .L0 
     /tmp/ccmnM2zG.s:211    .text:00000000000000e4 _ZN9Semaphore5mwaitEv
     /tmp/ccmnM2zG.s:214    .text:00000000000000e4 .L0 
     /tmp/ccmnM2zG.s:216    .text:00000000000000e4 .L0 
     /tmp/ccmnM2zG.s:217    .text:00000000000000e4 .L0 
     /tmp/ccmnM2zG.s:218    .text:00000000000000e4 .L0 
     /tmp/ccmnM2zG.s:220    .text:00000000000000e8 .L0 
     /tmp/ccmnM2zG.s:222    .text:00000000000000ec .L0 
     /tmp/ccmnM2zG.s:223    .text:00000000000000f0 .L0 
     /tmp/ccmnM2zG.s:228    .text:0000000000000100 .L0 
     /tmp/ccmnM2zG.s:229    .text:0000000000000100 .L0 
     /tmp/ccmnM2zG.s:230    .text:0000000000000100 .L0 
     /tmp/ccmnM2zG.s:231    .text:0000000000000100 .L0 
     /tmp/ccmnM2zG.s:233    .text:0000000000000104 .L0 
     /tmp/ccmnM2zG.s:237    .text:0000000000000108 .L0 
     /tmp/ccmnM2zG.s:238    .text:0000000000000108 .L0 
     /tmp/ccmnM2zG.s:240    .text:000000000000010c .L0 
     /tmp/ccmnM2zG.s:242    .text:0000000000000110 .L0 
     /tmp/ccmnM2zG.s:244    .text:0000000000000114 .L0 
     /tmp/ccmnM2zG.s:248    .text:000000000000011c .L0 
     /tmp/ccmnM2zG.s:252    .text:0000000000000120 .L0 
     /tmp/ccmnM2zG.s:253    .text:0000000000000124 .L0 
     /tmp/ccmnM2zG.s:254    .text:0000000000000124 .L0 
     /tmp/ccmnM2zG.s:256    .text:0000000000000128 .L0 
     /tmp/ccmnM2zG.s:257    .text:0000000000000128 .L0 
     /tmp/ccmnM2zG.s:259    .text:000000000000012c .L0 
     /tmp/ccmnM2zG.s:262    .text:0000000000000130 .L0 
     /tmp/ccmnM2zG.s:264    .text:0000000000000134 .L0 
     /tmp/ccmnM2zG.s:268    .text:0000000000000138 .L0 
     /tmp/ccmnM2zG.s:272    .text:0000000000000138 .L0 
     /tmp/ccmnM2zG.s:273    .text:0000000000000138 .L0 
     /tmp/ccmnM2zG.s:279    .text:0000000000000144 .L0 
     /tmp/ccmnM2zG.s:285    .text:0000000000000150 .L0 
     /tmp/ccmnM2zG.s:291    .text:0000000000000158 .L0 
     /tmp/ccmnM2zG.s:293    .text:000000000000015c .L0 
     /tmp/ccmnM2zG.s:295    .text:0000000000000160 .L0 
GAS LISTING /tmp/ccmnM2zG.s 			page 24


     /tmp/ccmnM2zG.s:297    .text:0000000000000164 .L0 
     /tmp/ccmnM2zG.s:303    .text:0000000000000168 .L0 
     /tmp/ccmnM2zG.s:304    .text:0000000000000168 .L0 
     /tmp/ccmnM2zG.s:310    .text:0000000000000174 .L0 
     /tmp/ccmnM2zG.s:311    .text:0000000000000174 .L0 
     /tmp/ccmnM2zG.s:316    .text:0000000000000178 .L0 
     /tmp/ccmnM2zG.s:317    .text:0000000000000178 .L0 
     /tmp/ccmnM2zG.s:322    .text:000000000000017c .L0 
     /tmp/ccmnM2zG.s:323    .text:000000000000017c .L0 
     /tmp/ccmnM2zG.s:324    .text:000000000000017c .L0 
     /tmp/ccmnM2zG.s:329    .text:0000000000000180 .L0 
     /tmp/ccmnM2zG.s:330    .text:0000000000000180 .L0 
     /tmp/ccmnM2zG.s:333    .text:0000000000000188 .L0 
     /tmp/ccmnM2zG.s:334    .text:0000000000000188 .L0 
     /tmp/ccmnM2zG.s:336    .text:000000000000018c .L0 
     /tmp/ccmnM2zG.s:340    .text:0000000000000190 .L0 
     /tmp/ccmnM2zG.s:349    .text:0000000000000198 .L0 
     /tmp/ccmnM2zG.s:354    .text:00000000000001a4 .L0 
     /tmp/ccmnM2zG.s:355    .text:00000000000001a4 .L0 
     /tmp/ccmnM2zG.s:356    .text:00000000000001a4 .L0 
     /tmp/ccmnM2zG.s:357    .text:00000000000001a4 .L0 
     /tmp/ccmnM2zG.s:358    .text:00000000000001a4 .L0 
     /tmp/ccmnM2zG.s:364    .text:00000000000001a4 .L0 
     /tmp/ccmnM2zG.s:367    .text:00000000000001a8 .L0 
     /tmp/ccmnM2zG.s:370    .text:00000000000001ac .L0 
     /tmp/ccmnM2zG.s:371    .text:00000000000001ac .L0 
     /tmp/ccmnM2zG.s:372    .text:00000000000001ac .L0 
     /tmp/ccmnM2zG.s:373    .text:00000000000001ac .L0 
     /tmp/ccmnM2zG.s:374    .text:00000000000001ac .L0 
     /tmp/ccmnM2zG.s:378    .text:00000000000001ac .L0 
     /tmp/ccmnM2zG.s:382    .text:00000000000001b4 .L0 
     /tmp/ccmnM2zG.s:388    .text:00000000000001b4 _ZN9Semaphore7msignalEv
     /tmp/ccmnM2zG.s:391    .text:00000000000001b4 .L0 
     /tmp/ccmnM2zG.s:393    .text:00000000000001b4 .L0 
     /tmp/ccmnM2zG.s:394    .text:00000000000001b4 .L0 
     /tmp/ccmnM2zG.s:395    .text:00000000000001b4 .L0 
     /tmp/ccmnM2zG.s:397    .text:00000000000001b8 .L0 
     /tmp/ccmnM2zG.s:401    .text:00000000000001c0 .L0 
     /tmp/ccmnM2zG.s:402    .text:00000000000001c0 .L0 
     /tmp/ccmnM2zG.s:404    .text:00000000000001c4 .L0 
     /tmp/ccmnM2zG.s:407    .text:00000000000001cc .L0 
     /tmp/ccmnM2zG.s:409    .text:00000000000001d0 .L0 
     /tmp/ccmnM2zG.s:415    .text:00000000000001d4 .L0 
     /tmp/ccmnM2zG.s:416    .text:00000000000001d4 .L0 
     /tmp/ccmnM2zG.s:419    .text:00000000000001d8 .L0 
     /tmp/ccmnM2zG.s:425    .text:00000000000001dc .L0 
     /tmp/ccmnM2zG.s:426    .text:00000000000001e0 .L0 
     /tmp/ccmnM2zG.s:430    .text:00000000000001ec .L0 
     /tmp/ccmnM2zG.s:431    .text:00000000000001ec .L0 
     /tmp/ccmnM2zG.s:432    .text:00000000000001ec .L0 
     /tmp/ccmnM2zG.s:434    .text:00000000000001f0 .L0 
     /tmp/ccmnM2zG.s:441    .text:00000000000001f0 .L0 
     /tmp/ccmnM2zG.s:443    .text:00000000000001f4 .L0 
     /tmp/ccmnM2zG.s:445    .text:00000000000001f8 .L0 
     /tmp/ccmnM2zG.s:448    .text:00000000000001fc .L0 
     /tmp/ccmnM2zG.s:451    .text:0000000000000200 .L0 
     /tmp/ccmnM2zG.s:457    .text:0000000000000208 .L0 
GAS LISTING /tmp/ccmnM2zG.s 			page 25


     /tmp/ccmnM2zG.s:463    .text:000000000000020c .L0 
     /tmp/ccmnM2zG.s:464    .text:000000000000020c .L0 
     /tmp/ccmnM2zG.s:465    .text:000000000000020c .L0 
     /tmp/ccmnM2zG.s:470    .text:0000000000000210 .L0 
     /tmp/ccmnM2zG.s:471    .text:0000000000000210 .L0 
     /tmp/ccmnM2zG.s:474    .text:0000000000000214 .L0 
     /tmp/ccmnM2zG.s:479    .text:0000000000000218 .L0 
     /tmp/ccmnM2zG.s:480    .text:0000000000000218 .L0 
     /tmp/ccmnM2zG.s:481    .text:0000000000000218 .L0 
     /tmp/ccmnM2zG.s:486    .text:000000000000021c .L0 
     /tmp/ccmnM2zG.s:487    .text:000000000000021c .L0 
     /tmp/ccmnM2zG.s:491    .text:0000000000000228 .L0 
     /tmp/ccmnM2zG.s:492    .text:0000000000000228 .L0 
     /tmp/ccmnM2zG.s:500    .text:000000000000022c .L0 
     /tmp/ccmnM2zG.s:501    .text:0000000000000230 .L0 
     /tmp/ccmnM2zG.s:502    .text:0000000000000230 .L0 
     /tmp/ccmnM2zG.s:504    .text:0000000000000234 .L0 
     /tmp/ccmnM2zG.s:505    .text:0000000000000234 .L0 
     /tmp/ccmnM2zG.s:507    .text:0000000000000238 .L0 
     /tmp/ccmnM2zG.s:509    .text:000000000000023c .L0 
     /tmp/ccmnM2zG.s:513    .text:0000000000000240 .L0 
     /tmp/ccmnM2zG.s:519    .text:0000000000000240 .L0 
     /tmp/ccmnM2zG.s:523    .text:0000000000000248 .L0 
     /tmp/ccmnM2zG.s:524    .text:0000000000000248 .L0 
     /tmp/ccmnM2zG.s:525    .text:0000000000000248 .L0 
     /tmp/ccmnM2zG.s:526    .text:0000000000000248 .L0 
     /tmp/ccmnM2zG.s:532    .text:0000000000000248 .L0 
     /tmp/ccmnM2zG.s:538    .text:0000000000000250 .L0 
     /tmp/ccmnM2zG.s:546    .text:000000000000025c .L0 
     /tmp/ccmnM2zG.s:549    .text:0000000000000260 .L0 
     /tmp/ccmnM2zG.s:550    .text:0000000000000260 .L0 
     /tmp/ccmnM2zG.s:551    .text:0000000000000260 .L0 
     /tmp/ccmnM2zG.s:552    .text:0000000000000260 .L0 
     /tmp/ccmnM2zG.s:554    .text:0000000000000260 .L0 
     /tmp/ccmnM2zG.s:560    .text:0000000000000270 .L0 
     /tmp/ccmnM2zG.s:566    .text:0000000000000270 _ZN9Semaphore13sem_timedwaitEm
     /tmp/ccmnM2zG.s:569    .text:0000000000000270 .L0 
     /tmp/ccmnM2zG.s:571    .text:0000000000000270 .L0 
     /tmp/ccmnM2zG.s:572    .text:0000000000000270 .L0 
     /tmp/ccmnM2zG.s:573    .text:0000000000000270 .L0 
     /tmp/ccmnM2zG.s:575    .text:0000000000000274 .L0 
     /tmp/ccmnM2zG.s:577    .text:0000000000000278 .L0 
     /tmp/ccmnM2zG.s:578    .text:000000000000027c .L0 
     /tmp/ccmnM2zG.s:584    .text:0000000000000290 .L0 
     /tmp/ccmnM2zG.s:585    .text:0000000000000290 .L0 
     /tmp/ccmnM2zG.s:586    .text:0000000000000290 .L0 
     /tmp/ccmnM2zG.s:587    .text:0000000000000290 .L0 
     /tmp/ccmnM2zG.s:588    .text:0000000000000290 .L0 
     /tmp/ccmnM2zG.s:590    .text:0000000000000294 .L0 
     /tmp/ccmnM2zG.s:594    .text:000000000000029c .L0 
     /tmp/ccmnM2zG.s:595    .text:000000000000029c .L0 
     /tmp/ccmnM2zG.s:597    .text:00000000000002a0 .L0 
     /tmp/ccmnM2zG.s:599    .text:00000000000002a4 .L0 
     /tmp/ccmnM2zG.s:601    .text:00000000000002a8 .L0 
     /tmp/ccmnM2zG.s:604    .text:00000000000002b0 .L0 
     /tmp/ccmnM2zG.s:608    .text:00000000000002b4 .L0 
     /tmp/ccmnM2zG.s:609    .text:00000000000002b8 .L0 
GAS LISTING /tmp/ccmnM2zG.s 			page 26


     /tmp/ccmnM2zG.s:610    .text:00000000000002b8 .L0 
     /tmp/ccmnM2zG.s:612    .text:00000000000002bc .L0 
     /tmp/ccmnM2zG.s:613    .text:00000000000002bc .L0 
     /tmp/ccmnM2zG.s:615    .text:00000000000002c0 .L0 
     /tmp/ccmnM2zG.s:618    .text:00000000000002c4 .L0 
     /tmp/ccmnM2zG.s:621    .text:00000000000002c8 .L0 
     /tmp/ccmnM2zG.s:623    .text:00000000000002cc .L0 
     /tmp/ccmnM2zG.s:627    .text:00000000000002d0 .L0 
     /tmp/ccmnM2zG.s:629    .text:00000000000002d0 .L0 
     /tmp/ccmnM2zG.s:630    .text:00000000000002d0 .L0 
     /tmp/ccmnM2zG.s:636    .text:00000000000002dc .L0 
     /tmp/ccmnM2zG.s:637    .text:00000000000002dc .L0 
     /tmp/ccmnM2zG.s:642    .text:00000000000002e0 .L0 
     /tmp/ccmnM2zG.s:646    .text:00000000000002e8 .L0 
     /tmp/ccmnM2zG.s:647    .text:00000000000002e8 .L0 
     /tmp/ccmnM2zG.s:653    .text:00000000000002f0 .L0 
     /tmp/ccmnM2zG.s:654    .text:00000000000002f0 .L0 
     /tmp/ccmnM2zG.s:660    .text:00000000000002fc .L0 
     /tmp/ccmnM2zG.s:666    .text:0000000000000304 .L0 
     /tmp/ccmnM2zG.s:668    .text:0000000000000308 .L0 
     /tmp/ccmnM2zG.s:670    .text:000000000000030c .L0 
     /tmp/ccmnM2zG.s:672    .text:0000000000000310 .L0 
     /tmp/ccmnM2zG.s:678    .text:0000000000000314 .L0 
     /tmp/ccmnM2zG.s:679    .text:0000000000000314 .L0 
     /tmp/ccmnM2zG.s:685    .text:0000000000000320 .L0 
     /tmp/ccmnM2zG.s:686    .text:0000000000000320 .L0 
     /tmp/ccmnM2zG.s:692    .text:0000000000000328 .L0 
     /tmp/ccmnM2zG.s:693    .text:0000000000000328 .L0 
     /tmp/ccmnM2zG.s:697    .text:0000000000000334 .L0 
     /tmp/ccmnM2zG.s:698    .text:0000000000000334 .L0 
     /tmp/ccmnM2zG.s:701    .text:000000000000033c .L0 
     /tmp/ccmnM2zG.s:702    .text:000000000000033c .L0 
     /tmp/ccmnM2zG.s:704    .text:0000000000000340 .L0 
     /tmp/ccmnM2zG.s:706    .text:0000000000000344 .L0 
     /tmp/ccmnM2zG.s:707    .text:0000000000000344 .L0 
     /tmp/ccmnM2zG.s:713    .text:0000000000000350 .L0 
     /tmp/ccmnM2zG.s:714    .text:0000000000000350 .L0 
     /tmp/ccmnM2zG.s:719    .text:0000000000000354 .L0 
     /tmp/ccmnM2zG.s:721    .text:0000000000000358 .L0 
     /tmp/ccmnM2zG.s:728    .text:0000000000000360 .L0 
     /tmp/ccmnM2zG.s:733    .text:000000000000036c .L0 
     /tmp/ccmnM2zG.s:734    .text:000000000000036c .L0 
     /tmp/ccmnM2zG.s:735    .text:000000000000036c .L0 
     /tmp/ccmnM2zG.s:736    .text:000000000000036c .L0 
     /tmp/ccmnM2zG.s:737    .text:000000000000036c .L0 
     /tmp/ccmnM2zG.s:738    .text:000000000000036c .L0 
     /tmp/ccmnM2zG.s:742    .text:000000000000036c .L0 
     /tmp/ccmnM2zG.s:745    .text:0000000000000370 .L0 
     /tmp/ccmnM2zG.s:748    .text:0000000000000374 .L0 
     /tmp/ccmnM2zG.s:749    .text:0000000000000374 .L0 
     /tmp/ccmnM2zG.s:750    .text:0000000000000374 .L0 
     /tmp/ccmnM2zG.s:751    .text:0000000000000374 .L0 
     /tmp/ccmnM2zG.s:752    .text:0000000000000374 .L0 
     /tmp/ccmnM2zG.s:753    .text:0000000000000374 .L0 
     /tmp/ccmnM2zG.s:755    .text:0000000000000374 .L0 
     /tmp/ccmnM2zG.s:763    .text:0000000000000384 .L0 
     /tmp/ccmnM2zG.s:765    .text:000000000000038c .L0 
GAS LISTING /tmp/ccmnM2zG.s 			page 27


     /tmp/ccmnM2zG.s:771    .text:000000000000038c _ZN9Semaphore11sem_trywaitEv
     /tmp/ccmnM2zG.s:774    .text:000000000000038c .L0 
     /tmp/ccmnM2zG.s:776    .text:000000000000038c .L0 
     /tmp/ccmnM2zG.s:777    .text:0000000000000390 .L0 
     /tmp/ccmnM2zG.s:779    .text:0000000000000394 .L0 
     /tmp/ccmnM2zG.s:781    .text:0000000000000398 .L0 
     /tmp/ccmnM2zG.s:783    .text:0000000000000398 .L0 
     /tmp/ccmnM2zG.s:784    .text:0000000000000398 .L0 
     /tmp/ccmnM2zG.s:786    .text:000000000000039c .L0 
     /tmp/ccmnM2zG.s:788    .text:00000000000003a0 .L0 
     /tmp/ccmnM2zG.s:789    .text:00000000000003a0 .L0 
     /tmp/ccmnM2zG.s:791    .text:00000000000003a4 .L0 
     /tmp/ccmnM2zG.s:793    .text:00000000000003a8 .L0 
     /tmp/ccmnM2zG.s:797    .text:00000000000003ac .L0 
     /tmp/ccmnM2zG.s:798    .text:00000000000003b0 .L0 
     /tmp/ccmnM2zG.s:799    .text:00000000000003b0 .L0 
     /tmp/ccmnM2zG.s:800    .text:00000000000003b0 .L0 
     /tmp/ccmnM2zG.s:802    .text:00000000000003b4 .L0 
     /tmp/ccmnM2zG.s:806    .text:00000000000003b8 .L0 
     /tmp/ccmnM2zG.s:808    .text:00000000000003b8 .L0 
     /tmp/ccmnM2zG.s:809    .text:00000000000003b8 .L0 
     /tmp/ccmnM2zG.s:812    .text:00000000000003c0 .L0 
     /tmp/ccmnM2zG.s:813    .text:00000000000003c0 .L0 
     /tmp/ccmnM2zG.s:819    .text:00000000000003c8 .L0 
     /tmp/ccmnM2zG.s:822    .text:00000000000003d0 .L0 
     /tmp/ccmnM2zG.s:830    .text:00000000000003d0 .L0 
     /tmp/ccmnM2zG.s:273    .text:0000000000000138 .L0 
     /tmp/ccmnM2zG.s:304    .text:0000000000000168 .L0 
     /tmp/ccmnM2zG.s:630    .text:00000000000002d0 .L0 
     /tmp/ccmnM2zG.s:679    .text:0000000000000314 .L0 
     /tmp/ccmnM2zG.s:707    .text:0000000000000344 .L0 
     /tmp/ccmnM2zG.s:159    .text:00000000000000b8 .L7
     /tmp/ccmnM2zG.s:129    .text:0000000000000098 .L6
     /tmp/ccmnM2zG.s:174    .text:00000000000000c0 .L8
     /tmp/ccmnM2zG.s:200    .text:00000000000000dc .L9
     /tmp/ccmnM2zG.s:105    .text:000000000000007c .L5
     /tmp/ccmnM2zG.s:99     .text:0000000000000078 .L14
     /tmp/ccmnM2zG.s:183    .text:00000000000000c4 .L4
     /tmp/ccmnM2zG.s:353    .text:00000000000001a4 .L19
     /tmp/ccmnM2zG.s:267    .text:0000000000000138 .L26
     /tmp/ccmnM2zG.s:343    .text:0000000000000198 .L17
     /tmp/ccmnM2zG.s:369    .text:00000000000001ac .L21
     /tmp/ccmnM2zG.s:250    .text:0000000000000120 .L16
     /tmp/ccmnM2zG.s:298    .text:0000000000000168 .L18
     /tmp/ccmnM2zG.s:522    .text:0000000000000248 .L30
     /tmp/ccmnM2zG.s:536    .text:0000000000000250 .L31
     /tmp/ccmnM2zG.s:542    .text:0000000000000258 .L32
     /tmp/ccmnM2zG.s:512    .text:0000000000000240 .L39
     /tmp/ccmnM2zG.s:548    .text:0000000000000260 .L33
     /tmp/ccmnM2zG.s:557    .text:0000000000000268 .L34
     /tmp/ccmnM2zG.s:446    .text:00000000000001fc .L29
     /tmp/ccmnM2zG.s:493    .text:000000000000022c .L28
     /tmp/ccmnM2zG.s:732    .text:000000000000036c .L44
     /tmp/ccmnM2zG.s:626    .text:00000000000002d0 .L54
     /tmp/ccmnM2zG.s:747    .text:0000000000000374 .L46
     /tmp/ccmnM2zG.s:757    .text:000000000000037c .L47
     /tmp/ccmnM2zG.s:724    .text:0000000000000360 .L42
GAS LISTING /tmp/ccmnM2zG.s 			page 28


     /tmp/ccmnM2zG.s:761    .text:0000000000000384 .L48
     /tmp/ccmnM2zG.s:606    .text:00000000000002b4 .L41
     /tmp/ccmnM2zG.s:673    .text:0000000000000314 .L43
     /tmp/ccmnM2zG.s:817    .text:00000000000003c8 .L57
     /tmp/ccmnM2zG.s:805    .text:00000000000003b8 .L60
     /tmp/ccmnM2zG.s:795    .text:00000000000003ac .L56
     /tmp/ccmnM2zG.s:2430   .debug_abbrev:0000000000000000 .Ldebug_abbrev0
     /tmp/ccmnM2zG.s:4480   .debug_str:00000000000006b7 .LASF121
     /tmp/ccmnM2zG.s:4358   .debug_str:0000000000000336 .LASF122
     /tmp/ccmnM2zG.s:4316   .debug_str:00000000000001d0 .LASF123
     /tmp/ccmnM2zG.s:5      .text:0000000000000000 .Ltext0
     /tmp/ccmnM2zG.s:825    .text:00000000000003d0 .Letext0
     /tmp/ccmnM2zG.s:4260   .debug_line:0000000000000000 .Ldebug_line0
     /tmp/ccmnM2zG.s:4414   .debug_str:00000000000004ac .LASF0
     /tmp/ccmnM2zG.s:4428   .debug_str:00000000000004fb .LASF1
     /tmp/ccmnM2zG.s:4398   .debug_str:0000000000000434 .LASF2
     /tmp/ccmnM2zG.s:4368   .debug_str:0000000000000394 .LASF4
     /tmp/ccmnM2zG.s:4466   .debug_str:000000000000061f .LASF3
     /tmp/ccmnM2zG.s:4286   .debug_str:00000000000000cb .LASF5
     /tmp/ccmnM2zG.s:4326   .debug_str:0000000000000233 .LASF6
     /tmp/ccmnM2zG.s:4434   .debug_str:0000000000000538 .LASF7
     /tmp/ccmnM2zG.s:4412   .debug_str:0000000000000499 .LASF8
     /tmp/ccmnM2zG.s:4498   .debug_str:000000000000081a .LASF9
     /tmp/ccmnM2zG.s:4352   .debug_str:00000000000002f8 .LASF10
     /tmp/ccmnM2zG.s:4440   .debug_str:0000000000000560 .LASF11
     /tmp/ccmnM2zG.s:4486   .debug_str:000000000000079f .LASF12
     /tmp/ccmnM2zG.s:4290   .debug_str:00000000000000dd .LASF13
     /tmp/ccmnM2zG.s:4270   .debug_str:0000000000000049 .LASF14
     /tmp/ccmnM2zG.s:4302   .debug_str:0000000000000151 .LASF15
     /tmp/ccmnM2zG.s:4458   .debug_str:00000000000005f2 .LASF16
     /tmp/ccmnM2zG.s:4318   .debug_str:00000000000001f3 .LASF17
     /tmp/ccmnM2zG.s:4438   .debug_str:0000000000000556 .LASF18
     /tmp/ccmnM2zG.s:4344   .debug_str:00000000000002bc .LASF68
     /tmp/ccmnM2zG.s:4362   .debug_str:0000000000000353 .LASF124
     /tmp/ccmnM2zG.s:4300   .debug_str:0000000000000139 .LASF125
     /tmp/ccmnM2zG.s:4386   .debug_str:0000000000000402 .LASF19
     /tmp/ccmnM2zG.s:4488   .debug_str:00000000000007ae .LASF22
     /tmp/ccmnM2zG.s:4452   .debug_str:00000000000005b9 .LASF20
     /tmp/ccmnM2zG.s:4524   .debug_str:00000000000008c8 .LASF21
     /tmp/ccmnM2zG.s:4406   .debug_str:0000000000000468 .LASF62
     /tmp/ccmnM2zG.s:4322   .debug_str:000000000000020f .LASF23
     /tmp/ccmnM2zG.s:4390   .debug_str:0000000000000419 .LASF24
     /tmp/ccmnM2zG.s:4366   .debug_str:000000000000038f .LASF25
     /tmp/ccmnM2zG.s:4476   .debug_str:000000000000069b .LASF27
     /tmp/ccmnM2zG.s:4456   .debug_str:00000000000005db .LASF32
     /tmp/ccmnM2zG.s:4408   .debug_str:0000000000000487 .LASF126
     /tmp/ccmnM2zG.s:4354   .debug_str:0000000000000306 .LASF127
     /tmp/ccmnM2zG.s:4478   .debug_str:00000000000006ae .LASF26
     /tmp/ccmnM2zG.s:4332   .debug_str:000000000000026c .LASF28
     /tmp/ccmnM2zG.s:4350   .debug_str:00000000000002f0 .LASF29
     /tmp/ccmnM2zG.s:4328   .debug_str:000000000000023a .LASF30
     /tmp/ccmnM2zG.s:4482   .debug_str:000000000000077b .LASF31
     /tmp/ccmnM2zG.s:4266   .debug_str:000000000000001e .LASF33
     /tmp/ccmnM2zG.s:4298   .debug_str:000000000000012f .LASF34
     /tmp/ccmnM2zG.s:4378   .debug_str:00000000000003be .LASF35
     /tmp/ccmnM2zG.s:4420   .debug_str:00000000000004c8 .LASF36
     /tmp/ccmnM2zG.s:4282   .debug_str:0000000000000095 .LASF37
GAS LISTING /tmp/ccmnM2zG.s 			page 29


     /tmp/ccmnM2zG.s:4380   .debug_str:00000000000003d9 .LASF38
     /tmp/ccmnM2zG.s:4512   .debug_str:0000000000000860 .LASF39
     /tmp/ccmnM2zG.s:4276   .debug_str:0000000000000067 .LASF40
     /tmp/ccmnM2zG.s:4506   .debug_str:0000000000000843 .LASF41
     /tmp/ccmnM2zG.s:4262   .debug_str:0000000000000000 .LASF42
     /tmp/ccmnM2zG.s:4432   .debug_str:000000000000052d .LASF43
     /tmp/ccmnM2zG.s:4444   .debug_str:0000000000000584 .LASF44
     /tmp/ccmnM2zG.s:4334   .debug_str:0000000000000289 .LASF45
     /tmp/ccmnM2zG.s:4448   .debug_str:00000000000005a8 .LASF46
     /tmp/ccmnM2zG.s:4436   .debug_str:000000000000054b .LASF47
     /tmp/ccmnM2zG.s:4312   .debug_str:00000000000001af .LASF48
     /tmp/ccmnM2zG.s:4400   .debug_str:0000000000000442 .LASF49
     /tmp/ccmnM2zG.s:4526   .debug_str:00000000000008cd .LASF50
     /tmp/ccmnM2zG.s:4388   .debug_str:000000000000040c .LASF51
     /tmp/ccmnM2zG.s:4284   .debug_str:00000000000000b2 .LASF52
     /tmp/ccmnM2zG.s:4376   .debug_str:00000000000003b1 .LASF53
     /tmp/ccmnM2zG.s:4514   .debug_str:000000000000087a .LASF54
     /tmp/ccmnM2zG.s:4450   .debug_str:00000000000005b4 .LASF128
     /tmp/ccmnM2zG.s:4460   .debug_str:0000000000000608 .LASF99
     /tmp/ccmnM2zG.s:4404   .debug_str:0000000000000458 .LASF101
     /tmp/ccmnM2zG.s:4336   .debug_str:000000000000028e .LASF129
     /tmp/ccmnM2zG.s:4424   .debug_str:00000000000004dd .LASF97
     /tmp/ccmnM2zG.s:4372   .debug_str:00000000000003a4 .LASF55
     /tmp/ccmnM2zG.s:4418   .debug_str:00000000000004c2 .LASF56
     /tmp/ccmnM2zG.s:4374   .debug_str:00000000000003a9 .LASF57
     /tmp/ccmnM2zG.s:4422   .debug_str:00000000000004d3 .LASF58
     /tmp/ccmnM2zG.s:4370   .debug_str:000000000000039b .LASF59
     /tmp/ccmnM2zG.s:4426   .debug_str:00000000000004f4 .LASF60
     /tmp/ccmnM2zG.s:4382   .debug_str:00000000000003e2 .LASF64
     /tmp/ccmnM2zG.s:4356   .debug_str:000000000000031d .LASF66
     /tmp/ccmnM2zG.s:4504   .debug_str:0000000000000835 .LASF61
     /tmp/ccmnM2zG.s:4364   .debug_str:0000000000000367 .LASF63
     /tmp/ccmnM2zG.s:4416   .debug_str:00000000000004b9 .LASF65
     /tmp/ccmnM2zG.s:4340   .debug_str:00000000000002a4 .LASF67
     /tmp/ccmnM2zG.s:4468   .debug_str:0000000000000631 .LASF69
     /tmp/ccmnM2zG.s:4278   .debug_str:000000000000006f .LASF70
     /tmp/ccmnM2zG.s:4288   .debug_str:00000000000000d2 .LASF71
     /tmp/ccmnM2zG.s:4360   .debug_str:0000000000000348 .LASF72
     /tmp/ccmnM2zG.s:4342   .debug_str:00000000000002b7 .LASF73
     /tmp/ccmnM2zG.s:4264   .debug_str:0000000000000014 .LASF74
     /tmp/ccmnM2zG.s:4274   .debug_str:000000000000005f .LASF75
     /tmp/ccmnM2zG.s:4484   .debug_str:0000000000000787 .LASF76
     /tmp/ccmnM2zG.s:4502   .debug_str:000000000000082f .LASF77
     /tmp/ccmnM2zG.s:4330   .debug_str:0000000000000256 .LASF78
     /tmp/ccmnM2zG.s:4510   .debug_str:000000000000085a .LASF79
     /tmp/ccmnM2zG.s:4494   .debug_str:00000000000007ec .LASF80
     /tmp/ccmnM2zG.s:4392   .debug_str:000000000000041e .LASF81
     /tmp/ccmnM2zG.s:4496   .debug_str:0000000000000802 .LASF82
     /tmp/ccmnM2zG.s:4338   .debug_str:0000000000000296 .LASF83
     /tmp/ccmnM2zG.s:4474   .debug_str:000000000000067c .LASF84
     /tmp/ccmnM2zG.s:4464   .debug_str:0000000000000613 .LASF85
     /tmp/ccmnM2zG.s:4492   .debug_str:00000000000007cf .LASF86
     /tmp/ccmnM2zG.s:4346   .debug_str:00000000000002cd .LASF87
     /tmp/ccmnM2zG.s:4348   .debug_str:00000000000002d6 .LASF88
     /tmp/ccmnM2zG.s:4314   .debug_str:00000000000001c6 .LASF89
     /tmp/ccmnM2zG.s:4470   .debug_str:0000000000000642 .LASF90
     /tmp/ccmnM2zG.s:4384   .debug_str:00000000000003f0 .LASF130
GAS LISTING /tmp/ccmnM2zG.s 			page 30


     /tmp/ccmnM2zG.s:4320   .debug_str:0000000000000209 .LASF91
     /tmp/ccmnM2zG.s:4410   .debug_str:0000000000000491 .LASF92
     /tmp/ccmnM2zG.s:4396   .debug_str:000000000000042d .LASF93
     /tmp/ccmnM2zG.s:4402   .debug_str:000000000000044e .LASF94
     /tmp/ccmnM2zG.s:4500   .debug_str:000000000000082a .LASF95
     /tmp/ccmnM2zG.s:4472   .debug_str:000000000000065c .LASF96
     /tmp/ccmnM2zG.s:4516   .debug_str:000000000000089c .LASF98
     /tmp/ccmnM2zG.s:4520   .debug_str:00000000000008ba .LASF100
     /tmp/ccmnM2zG.s:4292   .debug_str:00000000000000ed .LASF102
     /tmp/ccmnM2zG.s:4294   .debug_str:0000000000000103 .LASF103
     /tmp/ccmnM2zG.s:4430   .debug_str:000000000000050e .LASF104
     /tmp/ccmnM2zG.s:4454   .debug_str:00000000000005be .LASF106
     /tmp/ccmnM2zG.s:4446   .debug_str:000000000000059a .LASF105
     /tmp/ccmnM2zG.s:4324   .debug_str:0000000000000214 .LASF107
     /tmp/ccmnM2zG.s:4490   .debug_str:00000000000007b3 .LASF108
     /tmp/ccmnM2zG.s:4268   .debug_str:000000000000003c .LASF109
     /tmp/ccmnM2zG.s:4296   .debug_str:0000000000000111 .LASF110
     /tmp/ccmnM2zG.s:4518   .debug_str:00000000000008b5 .LASF111
     /tmp/ccmnM2zG.s:4310   .debug_str:0000000000000190 .LASF113
     /tmp/ccmnM2zG.s:4462   .debug_str:000000000000060e .LASF112
     /tmp/ccmnM2zG.s:4306   .debug_str:000000000000016d .LASF114
     /tmp/ccmnM2zG.s:772    .text:000000000000038c .LFB32
     /tmp/ccmnM2zG.s:823    .text:00000000000003d0 .LFE32
     /tmp/ccmnM2zG.s:3588   .debug_loc:0000000000000000 .LLST44
     /tmp/ccmnM2zG.s:567    .text:0000000000000270 .LFB31
     /tmp/ccmnM2zG.s:766    .text:000000000000038c .LFE31
     /tmp/ccmnM2zG.s:3624   .debug_loc:000000000000008b .LLST32
     /tmp/ccmnM2zG.s:4522   .debug_str:00000000000008c0 .LASF115
     /tmp/ccmnM2zG.s:3661   .debug_loc:0000000000000126 .LLST33
     /tmp/ccmnM2zG.s:633    .text:00000000000002dc .LBB105
     /tmp/ccmnM2zG.s:640    .text:00000000000002e0 .LBE105
     /tmp/ccmnM2zG.s:3695   .debug_loc:00000000000001be .LLST34
     /tmp/ccmnM2zG.s:651    .text:00000000000002f0 .LBB107
     /tmp/ccmnM2zG.s:4210   .debug_ranges:0000000000000000 .Ldebug_ranges0
     /tmp/ccmnM2zG.s:3702   .debug_loc:00000000000001e1 .LLST35
     /tmp/ccmnM2zG.s:3713   .debug_loc:0000000000000217 .LLST36
     /tmp/ccmnM2zG.s:3728   .debug_loc:0000000000000251 .LLST37
     /tmp/ccmnM2zG.s:657    .text:00000000000002fc .LBB109
     /tmp/ccmnM2zG.s:664    .text:0000000000000304 .LBE109
     /tmp/ccmnM2zG.s:3739   .debug_loc:0000000000000287 .LLST38
     /tmp/ccmnM2zG.s:3747   .debug_loc:00000000000002ab .LLST39
     /tmp/ccmnM2zG.s:3754   .debug_loc:00000000000002ce .LLST40
     /tmp/ccmnM2zG.s:656    .text:00000000000002fc .LVL68
     /tmp/ccmnM2zG.s:682    .text:0000000000000320 .LBB112
     /tmp/ccmnM2zG.s:690    .text:0000000000000328 .LBE112
     /tmp/ccmnM2zG.s:3761   .debug_loc:00000000000002f1 .LLST41
     /tmp/ccmnM2zG.s:3769   .debug_loc:0000000000000315 .LLST42
     /tmp/ccmnM2zG.s:710    .text:0000000000000350 .LBB114
     /tmp/ccmnM2zG.s:717    .text:0000000000000354 .LBE114
     /tmp/ccmnM2zG.s:3776   .debug_loc:0000000000000338 .LLST43
     /tmp/ccmnM2zG.s:695    .text:0000000000000334 .LVL73
     /tmp/ccmnM2zG.s:699    .text:000000000000033c .LVL74
     /tmp/ccmnM2zG.s:389    .text:00000000000001b4 .LFB30
     /tmp/ccmnM2zG.s:561    .text:0000000000000270 .LFE30
     /tmp/ccmnM2zG.s:3783   .debug_loc:000000000000035b .LLST23
     /tmp/ccmnM2zG.s:3831   .debug_loc:000000000000041f .LLST24
     /tmp/ccmnM2zG.s:458    .text:000000000000020c .LBB95
GAS LISTING /tmp/ccmnM2zG.s 			page 31


     /tmp/ccmnM2zG.s:495    .text:000000000000022c .LBE95
     /tmp/ccmnM2zG.s:3842   .debug_loc:0000000000000455 .LLST28
     /tmp/ccmnM2zG.s:461    .text:000000000000020c .LBB96
     /tmp/ccmnM2zG.s:468    .text:0000000000000210 .LBE96
     /tmp/ccmnM2zG.s:3853   .debug_loc:000000000000048b .LLST29
     /tmp/ccmnM2zG.s:477    .text:0000000000000218 .LBB98
     /tmp/ccmnM2zG.s:484    .text:000000000000021c .LBE98
     /tmp/ccmnM2zG.s:3860   .debug_loc:00000000000004ae .LLST30
     /tmp/ccmnM2zG.s:3868   .debug_loc:00000000000004d2 .LLST31
     /tmp/ccmnM2zG.s:489    .text:0000000000000228 .LVL48
     /tmp/ccmnM2zG.s:413    .text:00000000000001d4 .LBB89
     /tmp/ccmnM2zG.s:3875   .debug_loc:00000000000004f5 .LLST25
     /tmp/ccmnM2zG.s:3911   .debug_loc:0000000000000571 .LLST26
     /tmp/ccmnM2zG.s:3922   .debug_loc:00000000000005a7 .LLST27
     /tmp/ccmnM2zG.s:452    .text:0000000000000208 .LVL42
     /tmp/ccmnM2zG.s:212    .text:00000000000000e4 .LFB29
     /tmp/ccmnM2zG.s:383    .text:00000000000001b4 .LFE29
     /tmp/ccmnM2zG.s:3929   .debug_loc:00000000000005ca .LLST12
     /tmp/ccmnM2zG.s:3966   .debug_loc:0000000000000665 .LLST13
     /tmp/ccmnM2zG.s:276    .text:0000000000000144 .LBB72
     /tmp/ccmnM2zG.s:3973   .debug_loc:0000000000000688 .LLST14
     /tmp/ccmnM2zG.s:3984   .debug_loc:00000000000006be .LLST15
     /tmp/ccmnM2zG.s:3999   .debug_loc:00000000000006f8 .LLST16
     /tmp/ccmnM2zG.s:282    .text:0000000000000150 .LBB74
     /tmp/ccmnM2zG.s:289    .text:0000000000000158 .LBE74
     /tmp/ccmnM2zG.s:4010   .debug_loc:000000000000072e .LLST17
     /tmp/ccmnM2zG.s:4018   .debug_loc:0000000000000752 .LLST18
     /tmp/ccmnM2zG.s:4025   .debug_loc:0000000000000775 .LLST19
     /tmp/ccmnM2zG.s:281    .text:0000000000000150 .LVL25
     /tmp/ccmnM2zG.s:307    .text:0000000000000174 .LBB77
     /tmp/ccmnM2zG.s:314    .text:0000000000000178 .LBE77
     /tmp/ccmnM2zG.s:4032   .debug_loc:0000000000000798 .LLST20
     /tmp/ccmnM2zG.s:320    .text:000000000000017c .LBB79
     /tmp/ccmnM2zG.s:327    .text:0000000000000180 .LBE79
     /tmp/ccmnM2zG.s:4039   .debug_loc:00000000000007bb .LLST21
     /tmp/ccmnM2zG.s:4046   .debug_loc:00000000000007de .LLST22
     /tmp/ccmnM2zG.s:331    .text:0000000000000188 .LVL32
     /tmp/ccmnM2zG.s:70     .text:0000000000000048 .LFB28
     /tmp/ccmnM2zG.s:206    .text:00000000000000e4 .LFE28
     /tmp/ccmnM2zG.s:4053   .debug_loc:0000000000000801 .LLST4
     /tmp/ccmnM2zG.s:4090   .debug_loc:000000000000089c .LLST5
     /tmp/ccmnM2zG.s:101    .text:0000000000000078 .LBB61
     /tmp/ccmnM2zG.s:4097   .debug_loc:00000000000008bf .LLST6
     /tmp/ccmnM2zG.s:4112   .debug_loc:00000000000008f9 .LLST7
     /tmp/ccmnM2zG.s:4123   .debug_loc:000000000000092f .LLST8
     /tmp/ccmnM2zG.s:111    .text:0000000000000088 .LVL9
     /tmp/ccmnM2zG.s:115    .text:0000000000000088 .LBB64
     /tmp/ccmnM2zG.s:123    .text:000000000000008c .LBE64
     /tmp/ccmnM2zG.s:4130   .debug_loc:0000000000000952 .LLST9
     /tmp/ccmnM2zG.s:4138   .debug_loc:0000000000000976 .LLST10
     /tmp/ccmnM2zG.s:128    .text:0000000000000098 .LVL11
     /tmp/ccmnM2zG.s:133    .text:0000000000000098 .LBB67
     /tmp/ccmnM2zG.s:143    .text:00000000000000a4 .LBE67
     /tmp/ccmnM2zG.s:4145   .debug_loc:0000000000000999 .LLST11
     /tmp/ccmnM2zG.s:10     .text:0000000000000000 .LFB27
     /tmp/ccmnM2zG.s:64     .text:0000000000000048 .LFE27
     /tmp/ccmnM2zG.s:4160   .debug_loc:00000000000009d3 .LLST0
GAS LISTING /tmp/ccmnM2zG.s 			page 32


     /tmp/ccmnM2zG.s:32     .text:0000000000000024 .LBB56
     /tmp/ccmnM2zG.s:51     .text:0000000000000034 .LBE56
     /tmp/ccmnM2zG.s:4174   .debug_loc:0000000000000a0c .LLST1
     /tmp/ccmnM2zG.s:4181   .debug_loc:0000000000000a2f .LLST2
     /tmp/ccmnM2zG.s:38     .text:0000000000000028 .LBB58
     /tmp/ccmnM2zG.s:46     .text:0000000000000030 .LBE58
     /tmp/ccmnM2zG.s:4188   .debug_loc:0000000000000a52 .LLST3
     /tmp/ccmnM2zG.s:31     .text:0000000000000024 .LVL2
     /tmp/ccmnM2zG.s:4280   .debug_str:0000000000000083 .LASF116
     /tmp/ccmnM2zG.s:4272   .debug_str:0000000000000059 .LASF117
     /tmp/ccmnM2zG.s:4508   .debug_str:000000000000084d .LASF119
     /tmp/ccmnM2zG.s:4442   .debug_str:000000000000056f .LASF131
     /tmp/ccmnM2zG.s:4308   .debug_str:0000000000000180 .LASF132
     /tmp/ccmnM2zG.s:4394   .debug_str:0000000000000426 .LASF118
     /tmp/ccmnM2zG.s:4304   .debug_str:000000000000015d .LASF120
     /tmp/ccmnM2zG.s:775    .text:000000000000038c .LVL82
     /tmp/ccmnM2zG.s:794    .text:00000000000003ac .LVL83
     /tmp/ccmnM2zG.s:804    .text:00000000000003b8 .LVL84
     /tmp/ccmnM2zG.s:814    .text:00000000000003c4 .LVL85
     /tmp/ccmnM2zG.s:816    .text:00000000000003c8 .LVL86
     /tmp/ccmnM2zG.s:820    .text:00000000000003cc .LVL87
     /tmp/ccmnM2zG.s:570    .text:0000000000000270 .LVL59
     /tmp/ccmnM2zG.s:605    .text:00000000000002b4 .LVL60
     /tmp/ccmnM2zG.s:616    .text:00000000000002c0 .LVL61
     /tmp/ccmnM2zG.s:625    .text:00000000000002d0 .LVL63
     /tmp/ccmnM2zG.s:731    .text:000000000000036c .LVL78
     /tmp/ccmnM2zG.s:743    .text:0000000000000370 .LVL79
     /tmp/ccmnM2zG.s:746    .text:0000000000000374 .LVL80
     /tmp/ccmnM2zG.s:619    .text:00000000000002c4 .LVL62
     /tmp/ccmnM2zG.s:760    .text:0000000000000384 .LVL81
     /tmp/ccmnM2zG.s:632    .text:00000000000002dc .LVL64
     /tmp/ccmnM2zG.s:638    .text:00000000000002e0 .LVL65
     /tmp/ccmnM2zG.s:650    .text:00000000000002f0 .LVL67
     /tmp/ccmnM2zG.s:674    .text:0000000000000314 .LVL70
     /tmp/ccmnM2zG.s:723    .text:0000000000000360 .LVL77
     /tmp/ccmnM2zG.s:662    .text:0000000000000304 .LVL69
     /tmp/ccmnM2zG.s:681    .text:0000000000000320 .LVL71
     /tmp/ccmnM2zG.s:688    .text:0000000000000328 .LVL72
     /tmp/ccmnM2zG.s:709    .text:0000000000000350 .LVL75
     /tmp/ccmnM2zG.s:715    .text:0000000000000354 .LVL76
     /tmp/ccmnM2zG.s:392    .text:00000000000001b4 .LVL37
     /tmp/ccmnM2zG.s:417    .text:00000000000001d8 .LVL39
     /tmp/ccmnM2zG.s:511    .text:0000000000000240 .LVL50
     /tmp/ccmnM2zG.s:521    .text:0000000000000248 .LVL51
     /tmp/ccmnM2zG.s:533    .text:000000000000024c .LVL52
     /tmp/ccmnM2zG.s:535    .text:0000000000000250 .LVL53
     /tmp/ccmnM2zG.s:539    .text:0000000000000254 .LVL54
     /tmp/ccmnM2zG.s:547    .text:0000000000000260 .LVL57
     /tmp/ccmnM2zG.s:494    .text:000000000000022c .LVL49
     /tmp/ccmnM2zG.s:466    .text:0000000000000210 .LVL44
     /tmp/ccmnM2zG.s:556    .text:0000000000000268 .LVL58
     /tmp/ccmnM2zG.s:460    .text:000000000000020c .LVL43
     /tmp/ccmnM2zG.s:476    .text:0000000000000218 .LVL46
     /tmp/ccmnM2zG.s:482    .text:000000000000021c .LVL47
     /tmp/ccmnM2zG.s:412    .text:00000000000001d4 .LVL38
     /tmp/ccmnM2zG.s:541    .text:0000000000000258 .LVL55
     /tmp/ccmnM2zG.s:544    .text:000000000000025c .LVL56
GAS LISTING /tmp/ccmnM2zG.s 			page 33


     /tmp/ccmnM2zG.s:435    .text:00000000000001f0 .LVL40
     /tmp/ccmnM2zG.s:449    .text:0000000000000200 .LVL41
     /tmp/ccmnM2zG.s:215    .text:00000000000000e4 .LVL20
     /tmp/ccmnM2zG.s:249    .text:0000000000000120 .LVL21
     /tmp/ccmnM2zG.s:260    .text:000000000000012c .LVL22
     /tmp/ccmnM2zG.s:266    .text:0000000000000138 .LVL23
     /tmp/ccmnM2zG.s:352    .text:00000000000001a4 .LVL34
     /tmp/ccmnM2zG.s:365    .text:00000000000001a8 .LVL35
     /tmp/ccmnM2zG.s:368    .text:00000000000001ac .LVL36
     /tmp/ccmnM2zG.s:312    .text:0000000000000178 .LVL29
     /tmp/ccmnM2zG.s:275    .text:0000000000000144 .LVL24
     /tmp/ccmnM2zG.s:299    .text:0000000000000168 .LVL27
     /tmp/ccmnM2zG.s:342    .text:0000000000000198 .LVL33
     /tmp/ccmnM2zG.s:287    .text:0000000000000158 .LVL26
     /tmp/ccmnM2zG.s:306    .text:0000000000000174 .LVL28
     /tmp/ccmnM2zG.s:318    .text:000000000000017c .LVL30
     /tmp/ccmnM2zG.s:325    .text:0000000000000180 .LVL31
     /tmp/ccmnM2zG.s:73     .text:0000000000000048 .LVL6
     /tmp/ccmnM2zG.s:98     .text:0000000000000078 .LVL7
     /tmp/ccmnM2zG.s:158    .text:00000000000000b8 .LVL14
     /tmp/ccmnM2zG.s:170    .text:00000000000000bc .LVL15
     /tmp/ccmnM2zG.s:173    .text:00000000000000c0 .LVL16
     /tmp/ccmnM2zG.s:193    .text:00000000000000d0 .LVL18
     /tmp/ccmnM2zG.s:199    .text:00000000000000dc .LVL19
     /tmp/ccmnM2zG.s:148    .text:00000000000000a8 .LVL13
     /tmp/ccmnM2zG.s:108    .text:0000000000000080 .LVL8
     /tmp/ccmnM2zG.s:121    .text:000000000000008c .LVL10
     /tmp/ccmnM2zG.s:141    .text:00000000000000a4 .LVL12
     /tmp/ccmnM2zG.s:182    .text:00000000000000c4 .LVL17
     /tmp/ccmnM2zG.s:14     .text:0000000000000000 .LVL0
     /tmp/ccmnM2zG.s:29     .text:000000000000001c .LVL1
     /tmp/ccmnM2zG.s:49     .text:0000000000000034 .LVL5
     /tmp/ccmnM2zG.s:37     .text:0000000000000028 .LVL3
     /tmp/ccmnM2zG.s:44     .text:0000000000000030 .LVL4
     /tmp/ccmnM2zG.s:831    .debug_info:0000000000000000 .Ldebug_info0
     /tmp/ccmnM2zG.s:100    .text:0000000000000078 .LBB60
     /tmp/ccmnM2zG.s:130    .text:0000000000000098 .LBE60
     /tmp/ccmnM2zG.s:146    .text:00000000000000a8 .LBB69
     /tmp/ccmnM2zG.s:167    .text:00000000000000b8 .LBE69
     /tmp/ccmnM2zG.s:113    .text:0000000000000088 .LBE61
     /tmp/ccmnM2zG.s:149    .text:00000000000000a8 .LBB66
     /tmp/ccmnM2zG.s:166    .text:00000000000000b8 .LBE66
     /tmp/ccmnM2zG.s:270    .text:0000000000000138 .LBB71
     /tmp/ccmnM2zG.s:337    .text:0000000000000190 .LBE71
     /tmp/ccmnM2zG.s:345    .text:0000000000000198 .LBB82
     /tmp/ccmnM2zG.s:361    .text:00000000000001a4 .LBE82
     /tmp/ccmnM2zG.s:376    .text:00000000000001ac .LBB83
     /tmp/ccmnM2zG.s:380    .text:00000000000001b4 .LBE83
     /tmp/ccmnM2zG.s:301    .text:0000000000000168 .LBE72
     /tmp/ccmnM2zG.s:346    .text:0000000000000198 .LBB81
     /tmp/ccmnM2zG.s:360    .text:00000000000001a4 .LBE81
     /tmp/ccmnM2zG.s:410    .text:00000000000001d4 .LBB88
     /tmp/ccmnM2zG.s:422    .text:00000000000001dc .LBE88
     /tmp/ccmnM2zG.s:437    .text:00000000000001f0 .LBB101
     /tmp/ccmnM2zG.s:497    .text:000000000000022c .LBE101
     /tmp/ccmnM2zG.s:515    .text:0000000000000240 .LBB102
     /tmp/ccmnM2zG.s:529    .text:0000000000000248 .LBE102
GAS LISTING /tmp/ccmnM2zG.s 			page 34


     /tmp/ccmnM2zG.s:421    .text:00000000000001dc .LBE89
     /tmp/ccmnM2zG.s:438    .text:00000000000001f0 .LBB93
     /tmp/ccmnM2zG.s:454    .text:0000000000000208 .LBE93
     /tmp/ccmnM2zG.s:516    .text:0000000000000240 .LBB100
     /tmp/ccmnM2zG.s:528    .text:0000000000000248 .LBE100
     /tmp/ccmnM2zG.s:676    .text:0000000000000314 .LBE107
     /tmp/ccmnM2zG.s:725    .text:0000000000000360 .LBB116
     /tmp/ccmnM2zG.s:740    .text:000000000000036c .LBE116

UNDEFINED SYMBOLS
_Znwm
_ZdlPv
_ZN9Scheduler3putEP3TCB
_ZN3TCB7runningE
_Z15thread_dispatchv
_ZN9sleepList3addEP3TCBm
