GAS LISTING /tmp/cc1xgNHz.s 			page 1


   1              		.file	"syscall_c.cpp"
   2              		.option pic
   3              		.option norelax
   4              		.text
   5              	.Ltext0:
   6              		.align	2
   7              		.globl	_Z9mem_allocm
   9              	_Z9mem_allocm:
  10              	.LFB0:
  11              		.file 1 "src/syscall_c.cpp"
   1:src/syscall_c.cpp **** #include "../h/syscall_c.h"
   2:src/syscall_c.cpp **** 
   3:src/syscall_c.cpp **** #include "../h/print.hpp"
   4:src/syscall_c.cpp **** 
   5:src/syscall_c.cpp **** void* mem_alloc(size_t size)
   6:src/syscall_c.cpp **** {
  12              		.loc 1 6 1
  13              		.cfi_startproc
  14              	.LVL0:
  15 0000 130101FF 		addi	sp,sp,-16
  16              		.cfi_def_cfa_offset 16
  17 0004 23348100 		sd	s0,8(sp)
  18              		.cfi_offset 8, -8
  19 0008 13040101 		addi	s0,sp,16
  20              		.cfi_def_cfa 8, 0
   7:src/syscall_c.cpp ****     uint64 code = 0x01;
  21              		.loc 1 7 5
  22              	.LVL1:
   8:src/syscall_c.cpp ****     void* ret = nullptr;
  23              		.loc 1 8 5
   9:src/syscall_c.cpp ****     size_t sizeBlocks = size % MEM_BLOCK_SIZE ? MEM_BLOCK_SIZE * (size / MEM_BLOCK_SIZE + 1) : size
  24              		.loc 1 9 5
  25              		.loc 1 9 30 is_stmt 0
  26 000c 9377F503 		andi	a5,a0,63
  27              		.loc 1 9 47
  28 0010 63880700 		beqz	a5,.L2
  29              		.loc 1 9 72 discriminator 1
  30 0014 13556500 		srli	a0,a0,6
  31              	.LVL2:
  32              		.loc 1 9 89 discriminator 1
  33 0018 13051500 		addi	a0,a0,1
  34              		.loc 1 9 47 discriminator 1
  35 001c 13156500 		slli	a0,a0,6
  36              	.L2:
  37              	.LVL3:
  10:src/syscall_c.cpp ****     uint64 newSize = (uint64)sizeBlocks;
  38              		.loc 1 10 5 is_stmt 1 discriminator 4
  11:src/syscall_c.cpp ****     __asm__ volatile("mv a1, %0" : : "r" (newSize));
  39              		.loc 1 11 5 discriminator 4
  40              		.loc 1 11 52 is_stmt 0 discriminator 4
  41              	#APP
  42              	# 11 "src/syscall_c.cpp" 1
  12              	    __asm__ volatile("mv a0, %0" : : "r" (code));
  43              		mv a1, a0
  44              	# 0 "" 2
  45              		.loc 1 12 5 is_stmt 1 discriminator 4
  46              		.loc 1 12 49 is_stmt 0 discriminator 4
GAS LISTING /tmp/cc1xgNHz.s 			page 2


  47              	#NO_APP
  48 0024 93071000 		li	a5,1
  49              	#APP
  50              	# 12 "src/syscall_c.cpp" 1
  13              	
  14:src/syscall_c.cpp **** 
  15:src/syscall_c.cpp ****     //poziv za prelaz u sistemski rezim zbog obrade
  16:src/syscall_c.cpp ****     __asm__ volatile("ecall");
  51              		mv a0, a5
  52              	# 0 "" 2
  53              		.loc 1 16 5 is_stmt 1 discriminator 4
  54              		.loc 1 16 30 is_stmt 0 discriminator 4
  55              	# 16 "src/syscall_c.cpp" 1
  17              	    //upis povratne vrednosti koja se cuva u a0 registru
  18:src/syscall_c.cpp ****     uint64 rret;
  56              		ecall
  57              	# 0 "" 2
  58              		.loc 1 18 5 is_stmt 1 discriminator 4
  19:src/syscall_c.cpp ****     __asm__ volatile("mv %[rt], a0" : [rt] "=r" (rret));
  59              		.loc 1 19 5 discriminator 4
  60              		.loc 1 19 56 is_stmt 0 discriminator 4
  61              	# 19 "src/syscall_c.cpp" 1
  20              	    ret = (void*)rret;
  62              		mv a0, a0
  63              	# 0 "" 2
  64              	.LVL4:
  65              		.loc 1 20 5 is_stmt 1 discriminator 4
  21:src/syscall_c.cpp ****     return ret;
  66              		.loc 1 21 5 discriminator 4
  22:src/syscall_c.cpp **** }
  67              		.loc 1 22 1 is_stmt 0 discriminator 4
  68              	#NO_APP
  69 0034 03348100 		ld	s0,8(sp)
  70              		.cfi_restore 8
  71              		.cfi_def_cfa 2, 16
  72 0038 13010101 		addi	sp,sp,16
  73              		.cfi_def_cfa_offset 0
  74 003c 67800000 		jr	ra
  75              		.cfi_endproc
  76              	.LFE0:
  78              		.align	2
  79              		.globl	_Z8mem_freePv
  81              	_Z8mem_freePv:
  82              	.LFB1:
  23:src/syscall_c.cpp **** 
  24:src/syscall_c.cpp **** int mem_free(void* p)
  25:src/syscall_c.cpp **** {
  83              		.loc 1 25 1 is_stmt 1
  84              		.cfi_startproc
  85              	.LVL5:
  86 0040 130101FF 		addi	sp,sp,-16
  87              		.cfi_def_cfa_offset 16
  88 0044 23348100 		sd	s0,8(sp)
  89              		.cfi_offset 8, -8
  90 0048 13040101 		addi	s0,sp,16
  91              		.cfi_def_cfa 8, 0
  26:src/syscall_c.cpp ****     uint64 ret = -2;
GAS LISTING /tmp/cc1xgNHz.s 			page 3


  92              		.loc 1 26 5
  93              	.LVL6:
  27:src/syscall_c.cpp ****     uint64 ptr = (uint64)p;
  94              		.loc 1 27 5
  28:src/syscall_c.cpp ****     uint64 code = 0x02;
  95              		.loc 1 28 5
  29:src/syscall_c.cpp ****     __asm__ volatile("mv a1, %0" : : "r" (ptr));
  96              		.loc 1 29 5
  97              		.loc 1 29 48 is_stmt 0
  98              	#APP
  99              	# 29 "src/syscall_c.cpp" 1
  30              	    __asm__ volatile("mv a0, %0" : : "r" (code));
 100              		mv a1, a0
 101              	# 0 "" 2
 102              		.loc 1 30 5 is_stmt 1
 103              		.loc 1 30 49 is_stmt 0
 104              	#NO_APP
 105 0050 93072000 		li	a5,2
 106              	#APP
 107              	# 30 "src/syscall_c.cpp" 1
  31              	    __asm__ volatile("ecall");
 108              		mv a0, a5
 109              	# 0 "" 2
 110              		.loc 1 31 5 is_stmt 1
 111              		.loc 1 31 30 is_stmt 0
 112              	# 31 "src/syscall_c.cpp" 1
  32              	    __asm__ volatile("mv %0, a0" : "=r" (ret));
 113              		ecall
 114              	# 0 "" 2
 115              		.loc 1 32 5 is_stmt 1
 116              		.loc 1 32 47 is_stmt 0
 117              	# 32 "src/syscall_c.cpp" 1
  33              	    return (int)ret;
 118              		mv a0, a0
 119              	# 0 "" 2
 120              	.LVL7:
 121              		.loc 1 33 5 is_stmt 1
  34:src/syscall_c.cpp **** }
 122              		.loc 1 34 1 is_stmt 0
 123              	#NO_APP
 124 0060 1B050500 		sext.w	a0,a0
 125              	.LVL8:
 126 0064 03348100 		ld	s0,8(sp)
 127              		.cfi_restore 8
 128              		.cfi_def_cfa 2, 16
 129 0068 13010101 		addi	sp,sp,16
 130              		.cfi_def_cfa_offset 0
 131 006c 67800000 		jr	ra
 132              		.cfi_endproc
 133              	.LFE1:
 135              		.align	2
 136              		.globl	_Z13thread_createPP7_threadPFvPvES2_
 138              	_Z13thread_createPP7_threadPFvPvES2_:
 139              	.LFB2:
  35:src/syscall_c.cpp **** 
  36:src/syscall_c.cpp **** int thread_create (thread_t* handle, void(*start_routine)(void*), void* arg)
  37:src/syscall_c.cpp **** {
GAS LISTING /tmp/cc1xgNHz.s 			page 4


 140              		.loc 1 37 1 is_stmt 1
 141              		.cfi_startproc
 142              	.LVL9:
 143 0070 130101FF 		addi	sp,sp,-16
 144              		.cfi_def_cfa_offset 16
 145 0074 23348100 		sd	s0,8(sp)
 146              		.cfi_offset 8, -8
 147 0078 13040101 		addi	s0,sp,16
 148              		.cfi_def_cfa 8, 0
  38:src/syscall_c.cpp ****     uint64 code = 0x11;
 149              		.loc 1 38 5
 150              	.LVL10:
  39:src/syscall_c.cpp ****     uint64 ret;
 151              		.loc 1 39 5
  40:src/syscall_c.cpp ****     __asm__ volatile("mv a3, %0" : : "r"(arg));
 152              		.loc 1 40 5
 153              		.loc 1 40 47 is_stmt 0
 154              	#APP
 155              	# 40 "src/syscall_c.cpp" 1
  41              	    __asm__ volatile("mv a2, %0" : : "r"(start_routine));
 156              		mv a3, a2
 157              	# 0 "" 2
 158              		.loc 1 41 5 is_stmt 1
 159              		.loc 1 41 57 is_stmt 0
 160              	# 41 "src/syscall_c.cpp" 1
  42              	    __asm__ volatile("mv a1, %0" : : "r"(handle));
 161              		mv a2, a1
 162              	# 0 "" 2
 163              		.loc 1 42 5 is_stmt 1
 164              		.loc 1 42 50 is_stmt 0
 165              	# 42 "src/syscall_c.cpp" 1
  43              	    __asm__ volatile("mv a0, %0" : : "r" (code));
 166              		mv a1, a0
 167              	# 0 "" 2
 168              		.loc 1 43 5 is_stmt 1
 169              		.loc 1 43 49 is_stmt 0
 170              	#NO_APP
 171 0088 93071001 		li	a5,17
 172              	#APP
 173              	# 43 "src/syscall_c.cpp" 1
  44              	    __asm__ volatile("ecall");
 174              		mv a0, a5
 175              	# 0 "" 2
 176              		.loc 1 44 5 is_stmt 1
 177              		.loc 1 44 30 is_stmt 0
 178              	# 44 "src/syscall_c.cpp" 1
  45              	    __asm__ volatile("mv %0, a0" : "=r"(ret));
 179              		ecall
 180              	# 0 "" 2
 181              		.loc 1 45 5 is_stmt 1
 182              		.loc 1 45 46 is_stmt 0
 183              	# 45 "src/syscall_c.cpp" 1
  46              	    return (int)ret;
 184              		mv a0, a0
 185              	# 0 "" 2
 186              	.LVL11:
 187              		.loc 1 46 5 is_stmt 1
GAS LISTING /tmp/cc1xgNHz.s 			page 5


  47:src/syscall_c.cpp **** }
 188              		.loc 1 47 1 is_stmt 0
 189              	#NO_APP
 190 0098 1B050500 		sext.w	a0,a0
 191              	.LVL12:
 192 009c 03348100 		ld	s0,8(sp)
 193              		.cfi_restore 8
 194              		.cfi_def_cfa 2, 16
 195 00a0 13010101 		addi	sp,sp,16
 196              		.cfi_def_cfa_offset 0
 197 00a4 67800000 		jr	ra
 198              		.cfi_endproc
 199              	.LFE2:
 201              		.align	2
 202              		.globl	_Z15thread_dispatchv
 204              	_Z15thread_dispatchv:
 205              	.LFB3:
  48:src/syscall_c.cpp **** 
  49:src/syscall_c.cpp **** void thread_dispatch ()
  50:src/syscall_c.cpp **** {
 206              		.loc 1 50 1 is_stmt 1
 207              		.cfi_startproc
 208 00a8 130101FF 		addi	sp,sp,-16
 209              		.cfi_def_cfa_offset 16
 210 00ac 23348100 		sd	s0,8(sp)
 211              		.cfi_offset 8, -8
 212 00b0 13040101 		addi	s0,sp,16
 213              		.cfi_def_cfa 8, 0
  51:src/syscall_c.cpp ****     uint64 code = 0x13;
 214              		.loc 1 51 5
 215              	.LVL13:
  52:src/syscall_c.cpp ****     __asm__ volatile("mv a0, %0" : : "r" (code));
 216              		.loc 1 52 5
 217              		.loc 1 52 49 is_stmt 0
 218 00b4 93073001 		li	a5,19
 219              	#APP
 220              	# 52 "src/syscall_c.cpp" 1
  53              	    __asm__ volatile("ecall");
 221              		mv a0, a5
 222              	# 0 "" 2
 223              		.loc 1 53 5 is_stmt 1
 224              		.loc 1 53 30 is_stmt 0
 225              	# 53 "src/syscall_c.cpp" 1
  54              	}
 226              		ecall
 227              	# 0 "" 2
 228              		.loc 1 54 1
 229              	#NO_APP
 230 00c0 03348100 		ld	s0,8(sp)
 231              		.cfi_restore 8
 232              		.cfi_def_cfa 2, 16
 233 00c4 13010101 		addi	sp,sp,16
 234              		.cfi_def_cfa_offset 0
 235 00c8 67800000 		jr	ra
 236              		.cfi_endproc
 237              	.LFE3:
 239              		.align	2
GAS LISTING /tmp/cc1xgNHz.s 			page 6


 240              		.globl	_Z11thread_exitv
 242              	_Z11thread_exitv:
 243              	.LFB4:
  55:src/syscall_c.cpp **** 
  56:src/syscall_c.cpp **** int thread_exit()
  57:src/syscall_c.cpp **** {
 244              		.loc 1 57 1 is_stmt 1
 245              		.cfi_startproc
 246 00cc 130101FF 		addi	sp,sp,-16
 247              		.cfi_def_cfa_offset 16
 248 00d0 23348100 		sd	s0,8(sp)
 249              		.cfi_offset 8, -8
 250 00d4 13040101 		addi	s0,sp,16
 251              		.cfi_def_cfa 8, 0
  58:src/syscall_c.cpp ****     uint64 ret = -2;
 252              		.loc 1 58 5
 253              	.LVL14:
  59:src/syscall_c.cpp ****     uint64 code = 0x12;
 254              		.loc 1 59 5
  60:src/syscall_c.cpp ****     __asm__ volatile("mv a0, %0" : : "r" (code));
 255              		.loc 1 60 5
 256              		.loc 1 60 49 is_stmt 0
 257 00d8 93072001 		li	a5,18
 258              	#APP
 259              	# 60 "src/syscall_c.cpp" 1
  61              	    __asm__ volatile("ecall");
 260              		mv a0, a5
 261              	# 0 "" 2
 262              		.loc 1 61 5 is_stmt 1
 263              		.loc 1 61 30 is_stmt 0
 264              	# 61 "src/syscall_c.cpp" 1
  62              	    __asm__ volatile("mv %0, a0" : "=r" (ret));
 265              		ecall
 266              	# 0 "" 2
 267              		.loc 1 62 5 is_stmt 1
 268              		.loc 1 62 47 is_stmt 0
 269              	# 62 "src/syscall_c.cpp" 1
  63              	    return (int)ret;
 270              		mv a0, a0
 271              	# 0 "" 2
 272              	.LVL15:
 273              		.loc 1 63 5 is_stmt 1
  64:src/syscall_c.cpp **** }
 274              		.loc 1 64 1 is_stmt 0
 275              	#NO_APP
 276 00e8 1B050500 		sext.w	a0,a0
 277              	.LVL16:
 278 00ec 03348100 		ld	s0,8(sp)
 279              		.cfi_restore 8
 280              		.cfi_def_cfa 2, 16
 281 00f0 13010101 		addi	sp,sp,16
 282              		.cfi_def_cfa_offset 0
 283 00f4 67800000 		jr	ra
 284              		.cfi_endproc
 285              	.LFE4:
 287              		.align	2
 288              		.globl	_Z8sem_openPP4_semj
GAS LISTING /tmp/cc1xgNHz.s 			page 7


 290              	_Z8sem_openPP4_semj:
 291              	.LFB5:
  65:src/syscall_c.cpp **** 
  66:src/syscall_c.cpp **** int sem_open(sem_t* handle, unsigned init)
  67:src/syscall_c.cpp **** {
 292              		.loc 1 67 1 is_stmt 1
 293              		.cfi_startproc
 294              	.LVL17:
 295 00f8 130101FF 		addi	sp,sp,-16
 296              		.cfi_def_cfa_offset 16
 297 00fc 23348100 		sd	s0,8(sp)
 298              		.cfi_offset 8, -8
 299 0100 13040101 		addi	s0,sp,16
 300              		.cfi_def_cfa 8, 0
  68:src/syscall_c.cpp ****     uint64 ret = -3;
 301              		.loc 1 68 5
 302              	.LVL18:
  69:src/syscall_c.cpp ****     uint64 code = 0x21;
 303              		.loc 1 69 5
  70:src/syscall_c.cpp **** 
  71:src/syscall_c.cpp ****     __asm__ volatile("mv a2, %0" : : "r" (init));
 304              		.loc 1 71 5
 305              		.loc 1 71 49 is_stmt 0
 306              	#APP
 307              	# 71 "src/syscall_c.cpp" 1
  72              	    __asm__ volatile("mv a1, %0" : : "r" ((uint64)handle));
 308              		mv a2, a1
 309              	# 0 "" 2
 310              		.loc 1 72 5 is_stmt 1
 311              		.loc 1 72 59 is_stmt 0
 312              	# 72 "src/syscall_c.cpp" 1
  73              	
  74:src/syscall_c.cpp ****     __asm__ volatile("mv a0, %0" : : "r" (code));
 313              		mv a1, a0
 314              	# 0 "" 2
 315              		.loc 1 74 5 is_stmt 1
 316              		.loc 1 74 49 is_stmt 0
 317              	#NO_APP
 318 010c 93071002 		li	a5,33
 319              	#APP
 320              	# 74 "src/syscall_c.cpp" 1
  75              	    __asm__ volatile("ecall");
 321              		mv a0, a5
 322              	# 0 "" 2
 323              		.loc 1 75 5 is_stmt 1
 324              		.loc 1 75 30 is_stmt 0
 325              	# 75 "src/syscall_c.cpp" 1
  76              	    __asm__ volatile("mv %0, a0" : "=r" (ret));
 326              		ecall
 327              	# 0 "" 2
 328              		.loc 1 76 5 is_stmt 1
 329              		.loc 1 76 47 is_stmt 0
 330              	# 76 "src/syscall_c.cpp" 1
  77              	    return (int)ret;
 331              		mv a0, a0
 332              	# 0 "" 2
 333              	.LVL19:
GAS LISTING /tmp/cc1xgNHz.s 			page 8


 334              		.loc 1 77 5 is_stmt 1
  78:src/syscall_c.cpp **** 
  79:src/syscall_c.cpp **** }
 335              		.loc 1 79 1 is_stmt 0
 336              	#NO_APP
 337 011c 1B050500 		sext.w	a0,a0
 338              	.LVL20:
 339 0120 03348100 		ld	s0,8(sp)
 340              		.cfi_restore 8
 341              		.cfi_def_cfa 2, 16
 342 0124 13010101 		addi	sp,sp,16
 343              		.cfi_def_cfa_offset 0
 344 0128 67800000 		jr	ra
 345              		.cfi_endproc
 346              	.LFE5:
 348              		.align	2
 349              		.globl	_Z9sem_closeP4_sem
 351              	_Z9sem_closeP4_sem:
 352              	.LFB6:
  80:src/syscall_c.cpp **** int sem_close(sem_t handle)
  81:src/syscall_c.cpp **** {
 353              		.loc 1 81 1 is_stmt 1
 354              		.cfi_startproc
 355              	.LVL21:
 356 012c 130101FF 		addi	sp,sp,-16
 357              		.cfi_def_cfa_offset 16
 358 0130 23348100 		sd	s0,8(sp)
 359              		.cfi_offset 8, -8
 360 0134 13040101 		addi	s0,sp,16
 361              		.cfi_def_cfa 8, 0
  82:src/syscall_c.cpp ****     uint64 ret = -3;
 362              		.loc 1 82 5
 363              	.LVL22:
  83:src/syscall_c.cpp ****     uint64 code = 0x22;
 364              		.loc 1 83 5
  84:src/syscall_c.cpp **** 
  85:src/syscall_c.cpp ****     __asm__ volatile("mv a1, %0" : : "r" ((uint64)handle));
 365              		.loc 1 85 5
 366              		.loc 1 85 59 is_stmt 0
 367              	#APP
 368              	# 85 "src/syscall_c.cpp" 1
  86              	    __asm__ volatile("mv a0, %0" : : "r" (code));
 369              		mv a1, a0
 370              	# 0 "" 2
 371              		.loc 1 86 5 is_stmt 1
 372              		.loc 1 86 49 is_stmt 0
 373              	#NO_APP
 374 013c 93072002 		li	a5,34
 375              	#APP
 376              	# 86 "src/syscall_c.cpp" 1
  87              	    __asm__ volatile("ecall");
 377              		mv a0, a5
 378              	# 0 "" 2
 379              		.loc 1 87 5 is_stmt 1
 380              		.loc 1 87 30 is_stmt 0
 381              	# 87 "src/syscall_c.cpp" 1
  88              	    __asm__ volatile("mv %0, a0" : "=r" (ret));
GAS LISTING /tmp/cc1xgNHz.s 			page 9


 382              		ecall
 383              	# 0 "" 2
 384              		.loc 1 88 5 is_stmt 1
 385              		.loc 1 88 47 is_stmt 0
 386              	# 88 "src/syscall_c.cpp" 1
  89              	    return (int)ret;
 387              		mv a0, a0
 388              	# 0 "" 2
 389              	.LVL23:
 390              		.loc 1 89 5 is_stmt 1
  90:src/syscall_c.cpp **** }
 391              		.loc 1 90 1 is_stmt 0
 392              	#NO_APP
 393 014c 1B050500 		sext.w	a0,a0
 394              	.LVL24:
 395 0150 03348100 		ld	s0,8(sp)
 396              		.cfi_restore 8
 397              		.cfi_def_cfa 2, 16
 398 0154 13010101 		addi	sp,sp,16
 399              		.cfi_def_cfa_offset 0
 400 0158 67800000 		jr	ra
 401              		.cfi_endproc
 402              	.LFE6:
 404              		.align	2
 405              		.globl	_Z8sem_waitP4_sem
 407              	_Z8sem_waitP4_sem:
 408              	.LFB7:
  91:src/syscall_c.cpp **** int sem_wait(sem_t id)
  92:src/syscall_c.cpp **** {
 409              		.loc 1 92 1 is_stmt 1
 410              		.cfi_startproc
 411              	.LVL25:
 412 015c 130101FF 		addi	sp,sp,-16
 413              		.cfi_def_cfa_offset 16
 414 0160 23348100 		sd	s0,8(sp)
 415              		.cfi_offset 8, -8
 416 0164 13040101 		addi	s0,sp,16
 417              		.cfi_def_cfa 8, 0
  93:src/syscall_c.cpp ****     uint64 ret = -3;
 418              		.loc 1 93 5
 419              	.LVL26:
  94:src/syscall_c.cpp ****     uint64 code = 0x23;
 420              		.loc 1 94 5
  95:src/syscall_c.cpp **** 
  96:src/syscall_c.cpp ****     __asm__ volatile("mv a1, %0" : : "r" ((uint64)id));
 421              		.loc 1 96 5
 422              		.loc 1 96 55 is_stmt 0
 423              	#APP
 424              	# 96 "src/syscall_c.cpp" 1
  97              	    __asm__ volatile("mv a0, %0" : : "r" (code));
 425              		mv a1, a0
 426              	# 0 "" 2
 427              		.loc 1 97 5 is_stmt 1
 428              		.loc 1 97 49 is_stmt 0
 429              	#NO_APP
 430 016c 93073002 		li	a5,35
 431              	#APP
GAS LISTING /tmp/cc1xgNHz.s 			page 10


 432              	# 97 "src/syscall_c.cpp" 1
  98              	    __asm__ volatile("ecall");
 433              		mv a0, a5
 434              	# 0 "" 2
 435              		.loc 1 98 5 is_stmt 1
 436              		.loc 1 98 30 is_stmt 0
 437              	# 98 "src/syscall_c.cpp" 1
  99              	    __asm__ volatile("mv %0, a0" : "=r" (ret));
 438              		ecall
 439              	# 0 "" 2
 440              		.loc 1 99 5 is_stmt 1
 441              		.loc 1 99 47 is_stmt 0
 442              	# 99 "src/syscall_c.cpp" 1
 100              	    return (int)ret;
 443              		mv a0, a0
 444              	# 0 "" 2
 445              	.LVL27:
 446              		.loc 1 100 5 is_stmt 1
 101:src/syscall_c.cpp **** }
 447              		.loc 1 101 1 is_stmt 0
 448              	#NO_APP
 449 017c 1B050500 		sext.w	a0,a0
 450              	.LVL28:
 451 0180 03348100 		ld	s0,8(sp)
 452              		.cfi_restore 8
 453              		.cfi_def_cfa 2, 16
 454 0184 13010101 		addi	sp,sp,16
 455              		.cfi_def_cfa_offset 0
 456 0188 67800000 		jr	ra
 457              		.cfi_endproc
 458              	.LFE7:
 460              		.align	2
 461              		.globl	_Z10sem_signalP4_sem
 463              	_Z10sem_signalP4_sem:
 464              	.LFB8:
 102:src/syscall_c.cpp **** int sem_signal(sem_t id)
 103:src/syscall_c.cpp **** {
 465              		.loc 1 103 1 is_stmt 1
 466              		.cfi_startproc
 467              	.LVL29:
 468 018c 130101FF 		addi	sp,sp,-16
 469              		.cfi_def_cfa_offset 16
 470 0190 23348100 		sd	s0,8(sp)
 471              		.cfi_offset 8, -8
 472 0194 13040101 		addi	s0,sp,16
 473              		.cfi_def_cfa 8, 0
 104:src/syscall_c.cpp ****     uint64 ret = -3;
 474              		.loc 1 104 5
 475              	.LVL30:
 105:src/syscall_c.cpp ****     uint64 code = 0x24;
 476              		.loc 1 105 5
 106:src/syscall_c.cpp **** 
 107:src/syscall_c.cpp ****     __asm__ volatile("mv a1, %0" : : "r" (id));
 477              		.loc 1 107 5
 478              		.loc 1 107 47 is_stmt 0
 479              	#APP
 480              	# 107 "src/syscall_c.cpp" 1
GAS LISTING /tmp/cc1xgNHz.s 			page 11


 108              	    __asm__ volatile("mv a0, %0" : : "r" (code));
 481              		mv a1, a0
 482              	# 0 "" 2
 483              		.loc 1 108 5 is_stmt 1
 484              		.loc 1 108 49 is_stmt 0
 485              	#NO_APP
 486 019c 93074002 		li	a5,36
 487              	#APP
 488              	# 108 "src/syscall_c.cpp" 1
 109              	    __asm__ volatile("ecall");
 489              		mv a0, a5
 490              	# 0 "" 2
 491              		.loc 1 109 5 is_stmt 1
 492              		.loc 1 109 30 is_stmt 0
 493              	# 109 "src/syscall_c.cpp" 1
 110              	    __asm__ volatile("mv %0, a0" : "=r" (ret));
 494              		ecall
 495              	# 0 "" 2
 496              		.loc 1 110 5 is_stmt 1
 497              		.loc 1 110 47 is_stmt 0
 498              	# 110 "src/syscall_c.cpp" 1
 111              	    return (int)ret;
 499              		mv a0, a0
 500              	# 0 "" 2
 501              	.LVL31:
 502              		.loc 1 111 5 is_stmt 1
 112:src/syscall_c.cpp **** }
 503              		.loc 1 112 1 is_stmt 0
 504              	#NO_APP
 505 01ac 1B050500 		sext.w	a0,a0
 506              	.LVL32:
 507 01b0 03348100 		ld	s0,8(sp)
 508              		.cfi_restore 8
 509              		.cfi_def_cfa 2, 16
 510 01b4 13010101 		addi	sp,sp,16
 511              		.cfi_def_cfa_offset 0
 512 01b8 67800000 		jr	ra
 513              		.cfi_endproc
 514              	.LFE8:
 516              		.align	2
 517              		.globl	_Z13sem_timedwaitP4_semm
 519              	_Z13sem_timedwaitP4_semm:
 520              	.LFB9:
 113:src/syscall_c.cpp **** int sem_timedwait(sem_t id, time_t timeout)
 114:src/syscall_c.cpp **** {
 521              		.loc 1 114 1 is_stmt 1
 522              		.cfi_startproc
 523              	.LVL33:
 524 01bc 130101FF 		addi	sp,sp,-16
 525              		.cfi_def_cfa_offset 16
 526 01c0 23348100 		sd	s0,8(sp)
 527              		.cfi_offset 8, -8
 528 01c4 13040101 		addi	s0,sp,16
 529              		.cfi_def_cfa 8, 0
 115:src/syscall_c.cpp ****     uint64 ret = -3;
 530              		.loc 1 115 5
 531              	.LVL34:
GAS LISTING /tmp/cc1xgNHz.s 			page 12


 116:src/syscall_c.cpp ****     uint64 code = 0x25;
 532              		.loc 1 116 5
 117:src/syscall_c.cpp **** 
 118:src/syscall_c.cpp ****     __asm__ volatile("mv a1, %0" : : "r" ((uint64)id));
 533              		.loc 1 118 5
 534              		.loc 1 118 55 is_stmt 0
 535              	#APP
 536              	# 118 "src/syscall_c.cpp" 1
 119              	    __asm__ volatile("mv a2, %0" : : "r" ((uint64)timeout));
 537              		mv a1, a0
 538              	# 0 "" 2
 539              		.loc 1 119 5 is_stmt 1
 540              		.loc 1 119 60 is_stmt 0
 541              	# 119 "src/syscall_c.cpp" 1
 120              	    __asm__ volatile("mv a0, %0" : : "r" (code));
 542              		mv a2, a1
 543              	# 0 "" 2
 544              		.loc 1 120 5 is_stmt 1
 545              		.loc 1 120 49 is_stmt 0
 546              	#NO_APP
 547 01d0 93075002 		li	a5,37
 548              	#APP
 549              	# 120 "src/syscall_c.cpp" 1
 121              	    __asm__ volatile("ecall");
 550              		mv a0, a5
 551              	# 0 "" 2
 552              		.loc 1 121 5 is_stmt 1
 553              		.loc 1 121 30 is_stmt 0
 554              	# 121 "src/syscall_c.cpp" 1
 122              	    __asm__ volatile("mv %0, a0" : "=r" (ret));
 555              		ecall
 556              	# 0 "" 2
 557              		.loc 1 122 5 is_stmt 1
 558              		.loc 1 122 47 is_stmt 0
 559              	# 122 "src/syscall_c.cpp" 1
 123              	    return (int)ret;
 560              		mv a0, a0
 561              	# 0 "" 2
 562              	.LVL35:
 563              		.loc 1 123 5 is_stmt 1
 124:src/syscall_c.cpp **** }
 564              		.loc 1 124 1 is_stmt 0
 565              	#NO_APP
 566 01e0 1B050500 		sext.w	a0,a0
 567              	.LVL36:
 568 01e4 03348100 		ld	s0,8(sp)
 569              		.cfi_restore 8
 570              		.cfi_def_cfa 2, 16
 571 01e8 13010101 		addi	sp,sp,16
 572              		.cfi_def_cfa_offset 0
 573 01ec 67800000 		jr	ra
 574              		.cfi_endproc
 575              	.LFE9:
 577              		.align	2
 578              		.globl	_Z11sem_trywaitP4_sem
 580              	_Z11sem_trywaitP4_sem:
 581              	.LFB10:
GAS LISTING /tmp/cc1xgNHz.s 			page 13


 125:src/syscall_c.cpp **** int sem_trywait(sem_t id)
 126:src/syscall_c.cpp **** {
 582              		.loc 1 126 1 is_stmt 1
 583              		.cfi_startproc
 584              	.LVL37:
 585 01f0 130101FF 		addi	sp,sp,-16
 586              		.cfi_def_cfa_offset 16
 587 01f4 23348100 		sd	s0,8(sp)
 588              		.cfi_offset 8, -8
 589 01f8 13040101 		addi	s0,sp,16
 590              		.cfi_def_cfa 8, 0
 127:src/syscall_c.cpp ****     uint64 ret = -3;
 591              		.loc 1 127 5
 592              	.LVL38:
 128:src/syscall_c.cpp ****     uint64 code = 0x26;
 593              		.loc 1 128 5
 129:src/syscall_c.cpp **** 
 130:src/syscall_c.cpp ****     __asm__ volatile("mv a1, %0" : : "r" ((uint64)id));
 594              		.loc 1 130 5
 595              		.loc 1 130 55 is_stmt 0
 596              	#APP
 597              	# 130 "src/syscall_c.cpp" 1
 131              	    __asm__ volatile("mv a0, %0" : : "r" (code));
 598              		mv a1, a0
 599              	# 0 "" 2
 600              		.loc 1 131 5 is_stmt 1
 601              		.loc 1 131 49 is_stmt 0
 602              	#NO_APP
 603 0200 93076002 		li	a5,38
 604              	#APP
 605              	# 131 "src/syscall_c.cpp" 1
 132              	    __asm__ volatile("ecall");
 606              		mv a0, a5
 607              	# 0 "" 2
 608              		.loc 1 132 5 is_stmt 1
 609              		.loc 1 132 30 is_stmt 0
 610              	# 132 "src/syscall_c.cpp" 1
 133              	    __asm__ volatile("mv %0, a0" : "=r" (ret));
 611              		ecall
 612              	# 0 "" 2
 613              		.loc 1 133 5 is_stmt 1
 614              		.loc 1 133 47 is_stmt 0
 615              	# 133 "src/syscall_c.cpp" 1
 134              	    return (int)ret;
 616              		mv a0, a0
 617              	# 0 "" 2
 618              	.LVL39:
 619              		.loc 1 134 5 is_stmt 1
 135:src/syscall_c.cpp **** }
 620              		.loc 1 135 1 is_stmt 0
 621              	#NO_APP
 622 0210 1B050500 		sext.w	a0,a0
 623              	.LVL40:
 624 0214 03348100 		ld	s0,8(sp)
 625              		.cfi_restore 8
 626              		.cfi_def_cfa 2, 16
 627 0218 13010101 		addi	sp,sp,16
GAS LISTING /tmp/cc1xgNHz.s 			page 14


 628              		.cfi_def_cfa_offset 0
 629 021c 67800000 		jr	ra
 630              		.cfi_endproc
 631              	.LFE10:
 633              		.align	2
 634              		.globl	_Z10time_sleepm
 636              	_Z10time_sleepm:
 637              	.LFB11:
 136:src/syscall_c.cpp **** 
 137:src/syscall_c.cpp **** int time_sleep (time_t time)
 138:src/syscall_c.cpp **** {
 638              		.loc 1 138 1 is_stmt 1
 639              		.cfi_startproc
 640              	.LVL41:
 641 0220 130101FF 		addi	sp,sp,-16
 642              		.cfi_def_cfa_offset 16
 643 0224 23348100 		sd	s0,8(sp)
 644              		.cfi_offset 8, -8
 645 0228 13040101 		addi	s0,sp,16
 646              		.cfi_def_cfa 8, 0
 139:src/syscall_c.cpp ****     uint64 ret = -3;
 647              		.loc 1 139 5
 648              	.LVL42:
 140:src/syscall_c.cpp ****     uint64 code = 0x31;
 649              		.loc 1 140 5
 141:src/syscall_c.cpp **** 
 142:src/syscall_c.cpp ****     __asm__ volatile("mv a1, %0" : : "r" ((uint64)time));
 650              		.loc 1 142 5
 651              		.loc 1 142 57 is_stmt 0
 652              	#APP
 653              	# 142 "src/syscall_c.cpp" 1
 143              	    __asm__ volatile("mv a0, %0" : : "r" (code));
 654              		mv a1, a0
 655              	# 0 "" 2
 656              		.loc 1 143 5 is_stmt 1
 657              		.loc 1 143 49 is_stmt 0
 658              	#NO_APP
 659 0230 93071003 		li	a5,49
 660              	#APP
 661              	# 143 "src/syscall_c.cpp" 1
 144              	    __asm__ volatile("ecall");
 662              		mv a0, a5
 663              	# 0 "" 2
 664              		.loc 1 144 5 is_stmt 1
 665              		.loc 1 144 30 is_stmt 0
 666              	# 144 "src/syscall_c.cpp" 1
 145              	    __asm__ volatile("mv %0, a0" : "=r" (ret));
 667              		ecall
 668              	# 0 "" 2
 669              		.loc 1 145 5 is_stmt 1
 670              		.loc 1 145 47 is_stmt 0
 671              	# 145 "src/syscall_c.cpp" 1
 146              	    return (int)ret;
 672              		mv a0, a0
 673              	# 0 "" 2
 674              	.LVL43:
 675              		.loc 1 146 5 is_stmt 1
GAS LISTING /tmp/cc1xgNHz.s 			page 15


 147:src/syscall_c.cpp **** }
 676              		.loc 1 147 1 is_stmt 0
 677              	#NO_APP
 678 0240 1B050500 		sext.w	a0,a0
 679              	.LVL44:
 680 0244 03348100 		ld	s0,8(sp)
 681              		.cfi_restore 8
 682              		.cfi_def_cfa 2, 16
 683 0248 13010101 		addi	sp,sp,16
 684              		.cfi_def_cfa_offset 0
 685 024c 67800000 		jr	ra
 686              		.cfi_endproc
 687              	.LFE11:
 689              		.align	2
 690              		.globl	_Z4getcv
 692              	_Z4getcv:
 693              	.LFB12:
 148:src/syscall_c.cpp **** 
 149:src/syscall_c.cpp **** char getc()
 150:src/syscall_c.cpp **** {
 694              		.loc 1 150 1 is_stmt 1
 695              		.cfi_startproc
 696 0250 130101FF 		addi	sp,sp,-16
 697              		.cfi_def_cfa_offset 16
 698 0254 23348100 		sd	s0,8(sp)
 699              		.cfi_offset 8, -8
 700 0258 13040101 		addi	s0,sp,16
 701              		.cfi_def_cfa 8, 0
 151:src/syscall_c.cpp ****     uint64 code = 0x41;
 702              		.loc 1 151 5
 703              	.LVL45:
 152:src/syscall_c.cpp ****     __asm__ volatile("mv a0, %0" : : "r" (code));
 704              		.loc 1 152 5
 705              		.loc 1 152 49 is_stmt 0
 706 025c 93071004 		li	a5,65
 707              	#APP
 708              	# 152 "src/syscall_c.cpp" 1
 153              	    __asm__ volatile("ecall");
 709              		mv a0, a5
 710              	# 0 "" 2
 711              		.loc 1 153 5 is_stmt 1
 712              		.loc 1 153 30 is_stmt 0
 713              	# 153 "src/syscall_c.cpp" 1
 154              	    uint64 ret;
 714              		ecall
 715              	# 0 "" 2
 716              		.loc 1 154 5 is_stmt 1
 155:src/syscall_c.cpp ****     __asm__ volatile("mv %0, a0" : "=r" (ret));
 717              		.loc 1 155 5
 718              		.loc 1 155 47 is_stmt 0
 719              	# 155 "src/syscall_c.cpp" 1
 156              	    return (char)ret;
 720              		mv a0, a0
 721              	# 0 "" 2
 722              	.LVL46:
 723              		.loc 1 156 5 is_stmt 1
 157:src/syscall_c.cpp **** }
GAS LISTING /tmp/cc1xgNHz.s 			page 16


 724              		.loc 1 157 1 is_stmt 0
 725              	#NO_APP
 726 026c 1375F50F 		andi	a0,a0,0xff
 727              	.LVL47:
 728 0270 03348100 		ld	s0,8(sp)
 729              		.cfi_restore 8
 730              		.cfi_def_cfa 2, 16
 731 0274 13010101 		addi	sp,sp,16
 732              		.cfi_def_cfa_offset 0
 733 0278 67800000 		jr	ra
 734              		.cfi_endproc
 735              	.LFE12:
 737              		.align	2
 738              		.globl	_Z4putcc
 740              	_Z4putcc:
 741              	.LFB13:
 158:src/syscall_c.cpp **** void putc(char c)
 159:src/syscall_c.cpp **** {
 742              		.loc 1 159 1 is_stmt 1
 743              		.cfi_startproc
 744              	.LVL48:
 745 027c 130101FF 		addi	sp,sp,-16
 746              		.cfi_def_cfa_offset 16
 747 0280 23348100 		sd	s0,8(sp)
 748              		.cfi_offset 8, -8
 749 0284 13040101 		addi	s0,sp,16
 750              		.cfi_def_cfa 8, 0
 160:src/syscall_c.cpp ****     uint64 code = 0x42;
 751              		.loc 1 160 5
 752              	.LVL49:
 161:src/syscall_c.cpp ****     __asm__ volatile("mv a1, %0" : : "r" ((uint64)c));
 753              		.loc 1 161 5
 754              		.loc 1 161 54 is_stmt 0
 755              	#APP
 756              	# 161 "src/syscall_c.cpp" 1
 162              	    __asm__ volatile("mv a0, %0" : : "r" (code));
 757              		mv a1, a0
 758              	# 0 "" 2
 759              		.loc 1 162 5 is_stmt 1
 760              		.loc 1 162 49 is_stmt 0
 761              	#NO_APP
 762 028c 93072004 		li	a5,66
 763              	#APP
 764              	# 162 "src/syscall_c.cpp" 1
 163              	    __asm__ volatile("ecall");
 765              		mv a0, a5
 766              	# 0 "" 2
 767              		.loc 1 163 5 is_stmt 1
 768              		.loc 1 163 30 is_stmt 0
 769              	# 163 "src/syscall_c.cpp" 1
 164              	}...
 770              		ecall
 771              	# 0 "" 2
 772              		.loc 1 164 1
 773              	#NO_APP
 774 0298 03348100 		ld	s0,8(sp)
 775              		.cfi_restore 8
GAS LISTING /tmp/cc1xgNHz.s 			page 17


 776              		.cfi_def_cfa 2, 16
 777 029c 13010101 		addi	sp,sp,16
 778              		.cfi_def_cfa_offset 0
 779 02a0 67800000 		jr	ra
 780              		.cfi_endproc
 781              	.LFE13:
 783              	.Letext0:
 784              		.file 2 "src/../h/../h/../lib/hw.h"
 785              		.file 3 "src/../h/syscall_c.h"
GAS LISTING /tmp/cc1xgNHz.s 			page 18


DEFINED SYMBOLS
                            *ABS*:0000000000000000 syscall_c.cpp
     /tmp/cc1xgNHz.s:9      .text:0000000000000000 _Z9mem_allocm
     /tmp/cc1xgNHz.s:13     .text:0000000000000000 .L0 
     /tmp/cc1xgNHz.s:15     .text:0000000000000000 .L0 
     /tmp/cc1xgNHz.s:16     .text:0000000000000004 .L0 
     /tmp/cc1xgNHz.s:18     .text:0000000000000008 .L0 
     /tmp/cc1xgNHz.s:20     .text:000000000000000c .L0 
     /tmp/cc1xgNHz.s:23     .text:000000000000000c .L0 
     /tmp/cc1xgNHz.s:24     .text:000000000000000c .L0 
     /tmp/cc1xgNHz.s:25     .text:000000000000000c .L0 
     /tmp/cc1xgNHz.s:26     .text:000000000000000c .L0 
     /tmp/cc1xgNHz.s:28     .text:0000000000000010 .L0 
     /tmp/cc1xgNHz.s:30     .text:0000000000000014 .L0 
     /tmp/cc1xgNHz.s:33     .text:0000000000000018 .L0 
     /tmp/cc1xgNHz.s:35     .text:000000000000001c .L0 
     /tmp/cc1xgNHz.s:39     .text:0000000000000020 .L0 
     /tmp/cc1xgNHz.s:40     .text:0000000000000020 .L0 
   src/syscall_c.cpp:11     .text:0000000000000020 .L0 
     /tmp/cc1xgNHz.s:46     .text:0000000000000024 .L0 
     /tmp/cc1xgNHz.s:48     .text:0000000000000024 .L0 
     /tmp/cc1xgNHz.s:54     .text:000000000000002c .L0 
   src/syscall_c.cpp:16     .text:000000000000002c .L0 
     /tmp/cc1xgNHz.s:59     .text:0000000000000030 .L0 
     /tmp/cc1xgNHz.s:60     .text:0000000000000030 .L0 
   src/syscall_c.cpp:19     .text:0000000000000030 .L0 
     /tmp/cc1xgNHz.s:66     .text:0000000000000034 .L0 
     /tmp/cc1xgNHz.s:67     .text:0000000000000034 .L0 
     /tmp/cc1xgNHz.s:69     .text:0000000000000034 .L0 
     /tmp/cc1xgNHz.s:70     .text:0000000000000038 .L0 
     /tmp/cc1xgNHz.s:71     .text:0000000000000038 .L0 
     /tmp/cc1xgNHz.s:73     .text:000000000000003c .L0 
     /tmp/cc1xgNHz.s:75     .text:0000000000000040 .L0 
     /tmp/cc1xgNHz.s:81     .text:0000000000000040 _Z8mem_freePv
     /tmp/cc1xgNHz.s:84     .text:0000000000000040 .L0 
     /tmp/cc1xgNHz.s:86     .text:0000000000000040 .L0 
     /tmp/cc1xgNHz.s:87     .text:0000000000000044 .L0 
     /tmp/cc1xgNHz.s:89     .text:0000000000000048 .L0 
     /tmp/cc1xgNHz.s:91     .text:000000000000004c .L0 
     /tmp/cc1xgNHz.s:94     .text:000000000000004c .L0 
     /tmp/cc1xgNHz.s:95     .text:000000000000004c .L0 
     /tmp/cc1xgNHz.s:96     .text:000000000000004c .L0 
     /tmp/cc1xgNHz.s:97     .text:000000000000004c .L0 
   src/syscall_c.cpp:29     .text:000000000000004c .L0 
     /tmp/cc1xgNHz.s:103    .text:0000000000000050 .L0 
     /tmp/cc1xgNHz.s:105    .text:0000000000000050 .L0 
     /tmp/cc1xgNHz.s:111    .text:0000000000000058 .L0 
   src/syscall_c.cpp:31     .text:0000000000000058 .L0 
     /tmp/cc1xgNHz.s:116    .text:000000000000005c .L0 
   src/syscall_c.cpp:32     .text:000000000000005c .L0 
     /tmp/cc1xgNHz.s:122    .text:0000000000000060 .L0 
     /tmp/cc1xgNHz.s:124    .text:0000000000000060 .L0 
     /tmp/cc1xgNHz.s:127    .text:0000000000000068 .L0 
     /tmp/cc1xgNHz.s:128    .text:0000000000000068 .L0 
     /tmp/cc1xgNHz.s:130    .text:000000000000006c .L0 
     /tmp/cc1xgNHz.s:132    .text:0000000000000070 .L0 
     /tmp/cc1xgNHz.s:138    .text:0000000000000070 _Z13thread_createPP7_threadPFvPvES2_
GAS LISTING /tmp/cc1xgNHz.s 			page 19


     /tmp/cc1xgNHz.s:141    .text:0000000000000070 .L0 
     /tmp/cc1xgNHz.s:143    .text:0000000000000070 .L0 
     /tmp/cc1xgNHz.s:144    .text:0000000000000074 .L0 
     /tmp/cc1xgNHz.s:146    .text:0000000000000078 .L0 
     /tmp/cc1xgNHz.s:148    .text:000000000000007c .L0 
     /tmp/cc1xgNHz.s:151    .text:000000000000007c .L0 
     /tmp/cc1xgNHz.s:152    .text:000000000000007c .L0 
     /tmp/cc1xgNHz.s:153    .text:000000000000007c .L0 
   src/syscall_c.cpp:40     .text:000000000000007c .L0 
     /tmp/cc1xgNHz.s:159    .text:0000000000000080 .L0 
   src/syscall_c.cpp:41     .text:0000000000000080 .L0 
     /tmp/cc1xgNHz.s:164    .text:0000000000000084 .L0 
   src/syscall_c.cpp:42     .text:0000000000000084 .L0 
     /tmp/cc1xgNHz.s:169    .text:0000000000000088 .L0 
     /tmp/cc1xgNHz.s:171    .text:0000000000000088 .L0 
     /tmp/cc1xgNHz.s:177    .text:0000000000000090 .L0 
   src/syscall_c.cpp:44     .text:0000000000000090 .L0 
     /tmp/cc1xgNHz.s:182    .text:0000000000000094 .L0 
   src/syscall_c.cpp:45     .text:0000000000000094 .L0 
     /tmp/cc1xgNHz.s:188    .text:0000000000000098 .L0 
     /tmp/cc1xgNHz.s:190    .text:0000000000000098 .L0 
     /tmp/cc1xgNHz.s:193    .text:00000000000000a0 .L0 
     /tmp/cc1xgNHz.s:194    .text:00000000000000a0 .L0 
     /tmp/cc1xgNHz.s:196    .text:00000000000000a4 .L0 
     /tmp/cc1xgNHz.s:198    .text:00000000000000a8 .L0 
     /tmp/cc1xgNHz.s:204    .text:00000000000000a8 _Z15thread_dispatchv
     /tmp/cc1xgNHz.s:207    .text:00000000000000a8 .L0 
     /tmp/cc1xgNHz.s:208    .text:00000000000000a8 .L0 
     /tmp/cc1xgNHz.s:209    .text:00000000000000ac .L0 
     /tmp/cc1xgNHz.s:211    .text:00000000000000b0 .L0 
     /tmp/cc1xgNHz.s:213    .text:00000000000000b4 .L0 
     /tmp/cc1xgNHz.s:216    .text:00000000000000b4 .L0 
     /tmp/cc1xgNHz.s:217    .text:00000000000000b4 .L0 
     /tmp/cc1xgNHz.s:218    .text:00000000000000b4 .L0 
     /tmp/cc1xgNHz.s:224    .text:00000000000000bc .L0 
   src/syscall_c.cpp:53     .text:00000000000000bc .L0 
     /tmp/cc1xgNHz.s:230    .text:00000000000000c0 .L0 
     /tmp/cc1xgNHz.s:231    .text:00000000000000c4 .L0 
     /tmp/cc1xgNHz.s:232    .text:00000000000000c4 .L0 
     /tmp/cc1xgNHz.s:234    .text:00000000000000c8 .L0 
     /tmp/cc1xgNHz.s:236    .text:00000000000000cc .L0 
     /tmp/cc1xgNHz.s:242    .text:00000000000000cc _Z11thread_exitv
     /tmp/cc1xgNHz.s:245    .text:00000000000000cc .L0 
     /tmp/cc1xgNHz.s:246    .text:00000000000000cc .L0 
     /tmp/cc1xgNHz.s:247    .text:00000000000000d0 .L0 
     /tmp/cc1xgNHz.s:249    .text:00000000000000d4 .L0 
     /tmp/cc1xgNHz.s:251    .text:00000000000000d8 .L0 
     /tmp/cc1xgNHz.s:254    .text:00000000000000d8 .L0 
     /tmp/cc1xgNHz.s:255    .text:00000000000000d8 .L0 
     /tmp/cc1xgNHz.s:256    .text:00000000000000d8 .L0 
     /tmp/cc1xgNHz.s:257    .text:00000000000000d8 .L0 
     /tmp/cc1xgNHz.s:263    .text:00000000000000e0 .L0 
   src/syscall_c.cpp:61     .text:00000000000000e0 .L0 
     /tmp/cc1xgNHz.s:268    .text:00000000000000e4 .L0 
   src/syscall_c.cpp:62     .text:00000000000000e4 .L0 
     /tmp/cc1xgNHz.s:274    .text:00000000000000e8 .L0 
     /tmp/cc1xgNHz.s:276    .text:00000000000000e8 .L0 
GAS LISTING /tmp/cc1xgNHz.s 			page 20


     /tmp/cc1xgNHz.s:279    .text:00000000000000f0 .L0 
     /tmp/cc1xgNHz.s:280    .text:00000000000000f0 .L0 
     /tmp/cc1xgNHz.s:282    .text:00000000000000f4 .L0 
     /tmp/cc1xgNHz.s:284    .text:00000000000000f8 .L0 
     /tmp/cc1xgNHz.s:290    .text:00000000000000f8 _Z8sem_openPP4_semj
     /tmp/cc1xgNHz.s:293    .text:00000000000000f8 .L0 
     /tmp/cc1xgNHz.s:295    .text:00000000000000f8 .L0 
     /tmp/cc1xgNHz.s:296    .text:00000000000000fc .L0 
     /tmp/cc1xgNHz.s:298    .text:0000000000000100 .L0 
     /tmp/cc1xgNHz.s:300    .text:0000000000000104 .L0 
     /tmp/cc1xgNHz.s:303    .text:0000000000000104 .L0 
     /tmp/cc1xgNHz.s:304    .text:0000000000000104 .L0 
     /tmp/cc1xgNHz.s:305    .text:0000000000000104 .L0 
   src/syscall_c.cpp:71     .text:0000000000000104 .L0 
     /tmp/cc1xgNHz.s:311    .text:0000000000000108 .L0 
   src/syscall_c.cpp:72     .text:0000000000000108 .L0 
     /tmp/cc1xgNHz.s:316    .text:000000000000010c .L0 
     /tmp/cc1xgNHz.s:318    .text:000000000000010c .L0 
     /tmp/cc1xgNHz.s:324    .text:0000000000000114 .L0 
   src/syscall_c.cpp:75     .text:0000000000000114 .L0 
     /tmp/cc1xgNHz.s:329    .text:0000000000000118 .L0 
   src/syscall_c.cpp:76     .text:0000000000000118 .L0 
     /tmp/cc1xgNHz.s:335    .text:000000000000011c .L0 
     /tmp/cc1xgNHz.s:337    .text:000000000000011c .L0 
     /tmp/cc1xgNHz.s:340    .text:0000000000000124 .L0 
     /tmp/cc1xgNHz.s:341    .text:0000000000000124 .L0 
     /tmp/cc1xgNHz.s:343    .text:0000000000000128 .L0 
     /tmp/cc1xgNHz.s:345    .text:000000000000012c .L0 
     /tmp/cc1xgNHz.s:351    .text:000000000000012c _Z9sem_closeP4_sem
     /tmp/cc1xgNHz.s:354    .text:000000000000012c .L0 
     /tmp/cc1xgNHz.s:356    .text:000000000000012c .L0 
     /tmp/cc1xgNHz.s:357    .text:0000000000000130 .L0 
     /tmp/cc1xgNHz.s:359    .text:0000000000000134 .L0 
     /tmp/cc1xgNHz.s:361    .text:0000000000000138 .L0 
     /tmp/cc1xgNHz.s:364    .text:0000000000000138 .L0 
     /tmp/cc1xgNHz.s:365    .text:0000000000000138 .L0 
     /tmp/cc1xgNHz.s:366    .text:0000000000000138 .L0 
   src/syscall_c.cpp:85     .text:0000000000000138 .L0 
     /tmp/cc1xgNHz.s:372    .text:000000000000013c .L0 
     /tmp/cc1xgNHz.s:374    .text:000000000000013c .L0 
     /tmp/cc1xgNHz.s:380    .text:0000000000000144 .L0 
   src/syscall_c.cpp:87     .text:0000000000000144 .L0 
     /tmp/cc1xgNHz.s:385    .text:0000000000000148 .L0 
   src/syscall_c.cpp:88     .text:0000000000000148 .L0 
     /tmp/cc1xgNHz.s:391    .text:000000000000014c .L0 
     /tmp/cc1xgNHz.s:393    .text:000000000000014c .L0 
     /tmp/cc1xgNHz.s:396    .text:0000000000000154 .L0 
     /tmp/cc1xgNHz.s:397    .text:0000000000000154 .L0 
     /tmp/cc1xgNHz.s:399    .text:0000000000000158 .L0 
     /tmp/cc1xgNHz.s:401    .text:000000000000015c .L0 
     /tmp/cc1xgNHz.s:407    .text:000000000000015c _Z8sem_waitP4_sem
     /tmp/cc1xgNHz.s:410    .text:000000000000015c .L0 
     /tmp/cc1xgNHz.s:412    .text:000000000000015c .L0 
     /tmp/cc1xgNHz.s:413    .text:0000000000000160 .L0 
     /tmp/cc1xgNHz.s:415    .text:0000000000000164 .L0 
     /tmp/cc1xgNHz.s:417    .text:0000000000000168 .L0 
     /tmp/cc1xgNHz.s:420    .text:0000000000000168 .L0 
GAS LISTING /tmp/cc1xgNHz.s 			page 21


     /tmp/cc1xgNHz.s:421    .text:0000000000000168 .L0 
     /tmp/cc1xgNHz.s:422    .text:0000000000000168 .L0 
   src/syscall_c.cpp:96     .text:0000000000000168 .L0 
     /tmp/cc1xgNHz.s:428    .text:000000000000016c .L0 
     /tmp/cc1xgNHz.s:430    .text:000000000000016c .L0 
     /tmp/cc1xgNHz.s:436    .text:0000000000000174 .L0 
   src/syscall_c.cpp:98     .text:0000000000000174 .L0 
     /tmp/cc1xgNHz.s:441    .text:0000000000000178 .L0 
   src/syscall_c.cpp:99     .text:0000000000000178 .L0 
     /tmp/cc1xgNHz.s:447    .text:000000000000017c .L0 
     /tmp/cc1xgNHz.s:449    .text:000000000000017c .L0 
     /tmp/cc1xgNHz.s:452    .text:0000000000000184 .L0 
     /tmp/cc1xgNHz.s:453    .text:0000000000000184 .L0 
     /tmp/cc1xgNHz.s:455    .text:0000000000000188 .L0 
     /tmp/cc1xgNHz.s:457    .text:000000000000018c .L0 
     /tmp/cc1xgNHz.s:463    .text:000000000000018c _Z10sem_signalP4_sem
     /tmp/cc1xgNHz.s:466    .text:000000000000018c .L0 
     /tmp/cc1xgNHz.s:468    .text:000000000000018c .L0 
     /tmp/cc1xgNHz.s:469    .text:0000000000000190 .L0 
     /tmp/cc1xgNHz.s:471    .text:0000000000000194 .L0 
     /tmp/cc1xgNHz.s:473    .text:0000000000000198 .L0 
     /tmp/cc1xgNHz.s:476    .text:0000000000000198 .L0 
     /tmp/cc1xgNHz.s:477    .text:0000000000000198 .L0 
     /tmp/cc1xgNHz.s:478    .text:0000000000000198 .L0 
   src/syscall_c.cpp:107    .text:0000000000000198 .L0 
     /tmp/cc1xgNHz.s:484    .text:000000000000019c .L0 
     /tmp/cc1xgNHz.s:486    .text:000000000000019c .L0 
     /tmp/cc1xgNHz.s:492    .text:00000000000001a4 .L0 
   src/syscall_c.cpp:109    .text:00000000000001a4 .L0 
     /tmp/cc1xgNHz.s:497    .text:00000000000001a8 .L0 
   src/syscall_c.cpp:110    .text:00000000000001a8 .L0 
     /tmp/cc1xgNHz.s:503    .text:00000000000001ac .L0 
     /tmp/cc1xgNHz.s:505    .text:00000000000001ac .L0 
     /tmp/cc1xgNHz.s:508    .text:00000000000001b4 .L0 
     /tmp/cc1xgNHz.s:509    .text:00000000000001b4 .L0 
     /tmp/cc1xgNHz.s:511    .text:00000000000001b8 .L0 
     /tmp/cc1xgNHz.s:513    .text:00000000000001bc .L0 
     /tmp/cc1xgNHz.s:519    .text:00000000000001bc _Z13sem_timedwaitP4_semm
     /tmp/cc1xgNHz.s:522    .text:00000000000001bc .L0 
     /tmp/cc1xgNHz.s:524    .text:00000000000001bc .L0 
     /tmp/cc1xgNHz.s:525    .text:00000000000001c0 .L0 
     /tmp/cc1xgNHz.s:527    .text:00000000000001c4 .L0 
     /tmp/cc1xgNHz.s:529    .text:00000000000001c8 .L0 
     /tmp/cc1xgNHz.s:532    .text:00000000000001c8 .L0 
     /tmp/cc1xgNHz.s:533    .text:00000000000001c8 .L0 
     /tmp/cc1xgNHz.s:534    .text:00000000000001c8 .L0 
   src/syscall_c.cpp:118    .text:00000000000001c8 .L0 
     /tmp/cc1xgNHz.s:540    .text:00000000000001cc .L0 
   src/syscall_c.cpp:119    .text:00000000000001cc .L0 
     /tmp/cc1xgNHz.s:545    .text:00000000000001d0 .L0 
     /tmp/cc1xgNHz.s:547    .text:00000000000001d0 .L0 
     /tmp/cc1xgNHz.s:553    .text:00000000000001d8 .L0 
   src/syscall_c.cpp:121    .text:00000000000001d8 .L0 
     /tmp/cc1xgNHz.s:558    .text:00000000000001dc .L0 
   src/syscall_c.cpp:122    .text:00000000000001dc .L0 
     /tmp/cc1xgNHz.s:564    .text:00000000000001e0 .L0 
     /tmp/cc1xgNHz.s:566    .text:00000000000001e0 .L0 
GAS LISTING /tmp/cc1xgNHz.s 			page 22


     /tmp/cc1xgNHz.s:569    .text:00000000000001e8 .L0 
     /tmp/cc1xgNHz.s:570    .text:00000000000001e8 .L0 
     /tmp/cc1xgNHz.s:572    .text:00000000000001ec .L0 
     /tmp/cc1xgNHz.s:574    .text:00000000000001f0 .L0 
     /tmp/cc1xgNHz.s:580    .text:00000000000001f0 _Z11sem_trywaitP4_sem
     /tmp/cc1xgNHz.s:583    .text:00000000000001f0 .L0 
     /tmp/cc1xgNHz.s:585    .text:00000000000001f0 .L0 
     /tmp/cc1xgNHz.s:586    .text:00000000000001f4 .L0 
     /tmp/cc1xgNHz.s:588    .text:00000000000001f8 .L0 
     /tmp/cc1xgNHz.s:590    .text:00000000000001fc .L0 
     /tmp/cc1xgNHz.s:593    .text:00000000000001fc .L0 
     /tmp/cc1xgNHz.s:594    .text:00000000000001fc .L0 
     /tmp/cc1xgNHz.s:595    .text:00000000000001fc .L0 
   src/syscall_c.cpp:130    .text:00000000000001fc .L0 
     /tmp/cc1xgNHz.s:601    .text:0000000000000200 .L0 
     /tmp/cc1xgNHz.s:603    .text:0000000000000200 .L0 
     /tmp/cc1xgNHz.s:609    .text:0000000000000208 .L0 
   src/syscall_c.cpp:132    .text:0000000000000208 .L0 
     /tmp/cc1xgNHz.s:614    .text:000000000000020c .L0 
   src/syscall_c.cpp:133    .text:000000000000020c .L0 
     /tmp/cc1xgNHz.s:620    .text:0000000000000210 .L0 
     /tmp/cc1xgNHz.s:622    .text:0000000000000210 .L0 
     /tmp/cc1xgNHz.s:625    .text:0000000000000218 .L0 
     /tmp/cc1xgNHz.s:626    .text:0000000000000218 .L0 
     /tmp/cc1xgNHz.s:628    .text:000000000000021c .L0 
     /tmp/cc1xgNHz.s:630    .text:0000000000000220 .L0 
     /tmp/cc1xgNHz.s:636    .text:0000000000000220 _Z10time_sleepm
     /tmp/cc1xgNHz.s:639    .text:0000000000000220 .L0 
     /tmp/cc1xgNHz.s:641    .text:0000000000000220 .L0 
     /tmp/cc1xgNHz.s:642    .text:0000000000000224 .L0 
     /tmp/cc1xgNHz.s:644    .text:0000000000000228 .L0 
     /tmp/cc1xgNHz.s:646    .text:000000000000022c .L0 
     /tmp/cc1xgNHz.s:649    .text:000000000000022c .L0 
     /tmp/cc1xgNHz.s:650    .text:000000000000022c .L0 
     /tmp/cc1xgNHz.s:651    .text:000000000000022c .L0 
   src/syscall_c.cpp:142    .text:000000000000022c .L0 
     /tmp/cc1xgNHz.s:657    .text:0000000000000230 .L0 
     /tmp/cc1xgNHz.s:659    .text:0000000000000230 .L0 
     /tmp/cc1xgNHz.s:665    .text:0000000000000238 .L0 
   src/syscall_c.cpp:144    .text:0000000000000238 .L0 
     /tmp/cc1xgNHz.s:670    .text:000000000000023c .L0 
   src/syscall_c.cpp:145    .text:000000000000023c .L0 
     /tmp/cc1xgNHz.s:676    .text:0000000000000240 .L0 
     /tmp/cc1xgNHz.s:678    .text:0000000000000240 .L0 
     /tmp/cc1xgNHz.s:681    .text:0000000000000248 .L0 
     /tmp/cc1xgNHz.s:682    .text:0000000000000248 .L0 
     /tmp/cc1xgNHz.s:684    .text:000000000000024c .L0 
     /tmp/cc1xgNHz.s:686    .text:0000000000000250 .L0 
     /tmp/cc1xgNHz.s:692    .text:0000000000000250 _Z4getcv
     /tmp/cc1xgNHz.s:695    .text:0000000000000250 .L0 
     /tmp/cc1xgNHz.s:696    .text:0000000000000250 .L0 
     /tmp/cc1xgNHz.s:697    .text:0000000000000254 .L0 
     /tmp/cc1xgNHz.s:699    .text:0000000000000258 .L0 
     /tmp/cc1xgNHz.s:701    .text:000000000000025c .L0 
     /tmp/cc1xgNHz.s:704    .text:000000000000025c .L0 
     /tmp/cc1xgNHz.s:705    .text:000000000000025c .L0 
     /tmp/cc1xgNHz.s:706    .text:000000000000025c .L0 
GAS LISTING /tmp/cc1xgNHz.s 			page 23


     /tmp/cc1xgNHz.s:712    .text:0000000000000264 .L0 
   src/syscall_c.cpp:153    .text:0000000000000264 .L0 
     /tmp/cc1xgNHz.s:717    .text:0000000000000268 .L0 
     /tmp/cc1xgNHz.s:718    .text:0000000000000268 .L0 
   src/syscall_c.cpp:155    .text:0000000000000268 .L0 
     /tmp/cc1xgNHz.s:724    .text:000000000000026c .L0 
     /tmp/cc1xgNHz.s:726    .text:000000000000026c .L0 
     /tmp/cc1xgNHz.s:729    .text:0000000000000274 .L0 
     /tmp/cc1xgNHz.s:730    .text:0000000000000274 .L0 
     /tmp/cc1xgNHz.s:732    .text:0000000000000278 .L0 
     /tmp/cc1xgNHz.s:734    .text:000000000000027c .L0 
     /tmp/cc1xgNHz.s:740    .text:000000000000027c _Z4putcc
     /tmp/cc1xgNHz.s:743    .text:000000000000027c .L0 
     /tmp/cc1xgNHz.s:745    .text:000000000000027c .L0 
     /tmp/cc1xgNHz.s:746    .text:0000000000000280 .L0 
     /tmp/cc1xgNHz.s:748    .text:0000000000000284 .L0 
     /tmp/cc1xgNHz.s:750    .text:0000000000000288 .L0 
     /tmp/cc1xgNHz.s:753    .text:0000000000000288 .L0 
     /tmp/cc1xgNHz.s:754    .text:0000000000000288 .L0 
   src/syscall_c.cpp:161    .text:0000000000000288 .L0 
     /tmp/cc1xgNHz.s:760    .text:000000000000028c .L0 
     /tmp/cc1xgNHz.s:762    .text:000000000000028c .L0 
     /tmp/cc1xgNHz.s:768    .text:0000000000000294 .L0 
   src/syscall_c.cpp:163    .text:0000000000000294 .L0 
     /tmp/cc1xgNHz.s:774    .text:0000000000000298 .L0 
     /tmp/cc1xgNHz.s:775    .text:000000000000029c .L0 
     /tmp/cc1xgNHz.s:776    .text:000000000000029c .L0 
     /tmp/cc1xgNHz.s:778    .text:00000000000002a0 .L0 
     /tmp/cc1xgNHz.s:780    .text:00000000000002a4 .L0 
     /tmp/cc1xgNHz.s:786    .text:00000000000002a4 .L0 
     /tmp/cc1xgNHz.s:36     .text:0000000000000020 .L2
     /tmp/cc1xgNHz.s:1471   .debug_abbrev:0000000000000000 .Ldebug_abbrev0
     /tmp/cc1xgNHz.s:2233   .debug_str:000000000000019b .LASF61
     /tmp/cc1xgNHz.s:2297   .debug_str:00000000000003ea .LASF62
     /tmp/cc1xgNHz.s:2267   .debug_str:0000000000000311 .LASF63
     /tmp/cc1xgNHz.s:5      .text:0000000000000000 .Ltext0
     /tmp/cc1xgNHz.s:783    .text:00000000000002a4 .Letext0
     /tmp/cc1xgNHz.s:2171   .debug_line:0000000000000000 .Ldebug_line0
     /tmp/cc1xgNHz.s:2245   .debug_str:000000000000028b .LASF0
     /tmp/cc1xgNHz.s:2219   .debug_str:000000000000012e .LASF1
     /tmp/cc1xgNHz.s:2209   .debug_str:00000000000000f6 .LASF2
     /tmp/cc1xgNHz.s:2189   .debug_str:000000000000006c .LASF4
     /tmp/cc1xgNHz.s:2217   .debug_str:000000000000011c .LASF3
     /tmp/cc1xgNHz.s:2177   .debug_str:0000000000000021 .LASF5
     /tmp/cc1xgNHz.s:2253   .debug_str:00000000000002bd .LASF6
     /tmp/cc1xgNHz.s:2175   .debug_str:000000000000000e .LASF7
     /tmp/cc1xgNHz.s:2203   .debug_str:00000000000000c0 .LASF8
     /tmp/cc1xgNHz.s:2255   .debug_str:00000000000002c4 .LASF9
     /tmp/cc1xgNHz.s:2187   .debug_str:000000000000005e .LASF10
     /tmp/cc1xgNHz.s:2299   .debug_str:00000000000003fc .LASF11
     /tmp/cc1xgNHz.s:2205   .debug_str:00000000000000d3 .LASF12
     /tmp/cc1xgNHz.s:2283   .debug_str:000000000000038e .LASF13
     /tmp/cc1xgNHz.s:2263   .debug_str:00000000000002f8 .LASF14
     /tmp/cc1xgNHz.s:2223   .debug_str:000000000000014a .LASF15
     /tmp/cc1xgNHz.s:2195   .debug_str:000000000000008b .LASF16
     /tmp/cc1xgNHz.s:2259   .debug_str:00000000000002d9 .LASF17
     /tmp/cc1xgNHz.s:2261   .debug_str:00000000000002ef .LASF18
GAS LISTING /tmp/cc1xgNHz.s 			page 24


     /tmp/cc1xgNHz.s:2275   .debug_str:0000000000000357 .LASF20
     /tmp/cc1xgNHz.s:2181   .debug_str:000000000000003a .LASF19
     /tmp/cc1xgNHz.s:2235   .debug_str:000000000000025f .LASF21
     /tmp/cc1xgNHz.s:2273   .debug_str:0000000000000352 .LASF46
     /tmp/cc1xgNHz.s:2221   .debug_str:0000000000000141 .LASF48
     /tmp/cc1xgNHz.s:741    .text:000000000000027c .LFB13
     /tmp/cc1xgNHz.s:781    .text:00000000000002a4 .LFE13
     /tmp/cc1xgNHz.s:2239   .debug_str:000000000000026d .LASF22
     /tmp/cc1xgNHz.s:2249   .debug_str:00000000000002a3 .LASF23
     /tmp/cc1xgNHz.s:2211   .debug_str:0000000000000104 .LASF24
     /tmp/cc1xgNHz.s:2289   .debug_str:00000000000003b4 .LASF26
     /tmp/cc1xgNHz.s:693    .text:0000000000000250 .LFB12
     /tmp/cc1xgNHz.s:735    .text:000000000000027c .LFE12
     /tmp/cc1xgNHz.s:1854   .debug_loc:0000000000000000 .LLST24
     /tmp/cc1xgNHz.s:2247   .debug_str:0000000000000298 .LASF25
     /tmp/cc1xgNHz.s:2277   .debug_str:000000000000035f .LASF27
     /tmp/cc1xgNHz.s:637    .text:0000000000000220 .LFB11
     /tmp/cc1xgNHz.s:687    .text:0000000000000250 .LFE11
     /tmp/cc1xgNHz.s:2257   .debug_str:00000000000002d4 .LASF28
     /tmp/cc1xgNHz.s:1861   .debug_loc:0000000000000023 .LLST22
     /tmp/cc1xgNHz.s:1875   .debug_loc:000000000000005c .LLST23
     /tmp/cc1xgNHz.s:2295   .debug_str:00000000000003de .LASF29
     /tmp/cc1xgNHz.s:2183   .debug_str:0000000000000040 .LASF30
     /tmp/cc1xgNHz.s:581    .text:00000000000001f0 .LFB10
     /tmp/cc1xgNHz.s:631    .text:0000000000000220 .LFE10
     /tmp/cc1xgNHz.s:1888   .debug_loc:0000000000000094 .LLST20
     /tmp/cc1xgNHz.s:1902   .debug_loc:00000000000000cd .LLST21
     /tmp/cc1xgNHz.s:2269   .debug_str:0000000000000334 .LASF31
     /tmp/cc1xgNHz.s:2293   .debug_str:00000000000003c5 .LASF32
     /tmp/cc1xgNHz.s:520    .text:00000000000001bc .LFB9
     /tmp/cc1xgNHz.s:575    .text:00000000000001f0 .LFE9
     /tmp/cc1xgNHz.s:1915   .debug_loc:0000000000000105 .LLST18
     /tmp/cc1xgNHz.s:2185   .debug_str:0000000000000056 .LASF33
     /tmp/cc1xgNHz.s:1929   .debug_loc:000000000000013e .LLST19
     /tmp/cc1xgNHz.s:2227   .debug_str:000000000000015d .LASF34
     /tmp/cc1xgNHz.s:2251   .debug_str:00000000000002a8 .LASF35
     /tmp/cc1xgNHz.s:464    .text:000000000000018c .LFB8
     /tmp/cc1xgNHz.s:514    .text:00000000000001bc .LFE8
     /tmp/cc1xgNHz.s:1942   .debug_loc:0000000000000176 .LLST16
     /tmp/cc1xgNHz.s:1956   .debug_loc:00000000000001af .LLST17
     /tmp/cc1xgNHz.s:2237   .debug_str:0000000000000264 .LASF36
     /tmp/cc1xgNHz.s:2179   .debug_str:0000000000000028 .LASF37
     /tmp/cc1xgNHz.s:408    .text:000000000000015c .LFB7
     /tmp/cc1xgNHz.s:458    .text:000000000000018c .LFE7
     /tmp/cc1xgNHz.s:1969   .debug_loc:00000000000001e7 .LLST14
     /tmp/cc1xgNHz.s:1983   .debug_loc:0000000000000220 .LLST15
     /tmp/cc1xgNHz.s:2215   .debug_str:0000000000000112 .LASF38
     /tmp/cc1xgNHz.s:2191   .debug_str:0000000000000073 .LASF39
     /tmp/cc1xgNHz.s:352    .text:000000000000012c .LFB6
     /tmp/cc1xgNHz.s:402    .text:000000000000015c .LFE6
     /tmp/cc1xgNHz.s:2225   .debug_str:0000000000000156 .LASF40
     /tmp/cc1xgNHz.s:1996   .debug_loc:0000000000000258 .LLST12
     /tmp/cc1xgNHz.s:2010   .debug_loc:0000000000000291 .LLST13
     /tmp/cc1xgNHz.s:2213   .debug_str:0000000000000109 .LASF41
     /tmp/cc1xgNHz.s:2207   .debug_str:00000000000000e2 .LASF42
     /tmp/cc1xgNHz.s:291    .text:00000000000000f8 .LFB5
     /tmp/cc1xgNHz.s:346    .text:000000000000012c .LFE5
GAS LISTING /tmp/cc1xgNHz.s 			page 25


     /tmp/cc1xgNHz.s:2023   .debug_loc:00000000000002c9 .LLST10
     /tmp/cc1xgNHz.s:2193   .debug_str:0000000000000086 .LASF43
     /tmp/cc1xgNHz.s:2037   .debug_loc:0000000000000302 .LLST11
     /tmp/cc1xgNHz.s:2285   .debug_str:000000000000039e .LASF44
     /tmp/cc1xgNHz.s:2281   .debug_str:000000000000037d .LASF45
     /tmp/cc1xgNHz.s:243    .text:00000000000000cc .LFB4
     /tmp/cc1xgNHz.s:285    .text:00000000000000f8 .LFE4
     /tmp/cc1xgNHz.s:2050   .debug_loc:000000000000033a .LLST9
     /tmp/cc1xgNHz.s:2271   .debug_str:0000000000000342 .LASF47
     /tmp/cc1xgNHz.s:2199   .debug_str:00000000000000a6 .LASF49
     /tmp/cc1xgNHz.s:205    .text:00000000000000a8 .LFB3
     /tmp/cc1xgNHz.s:237    .text:00000000000000cc .LFE3
     /tmp/cc1xgNHz.s:2279   .debug_str:000000000000036f .LASF50
     /tmp/cc1xgNHz.s:2229   .debug_str:0000000000000168 .LASF51
     /tmp/cc1xgNHz.s:139    .text:0000000000000070 .LFB2
     /tmp/cc1xgNHz.s:199    .text:00000000000000a8 .LFE2
     /tmp/cc1xgNHz.s:2063   .debug_loc:0000000000000372 .LLST7
     /tmp/cc1xgNHz.s:2231   .debug_str:000000000000018d .LASF52
     /tmp/cc1xgNHz.s:2077   .debug_loc:00000000000003ab .LLST8
     /tmp/cc1xgNHz.s:2265   .debug_str:0000000000000308 .LASF53
     /tmp/cc1xgNHz.s:2173   .debug_str:0000000000000000 .LASF54
     /tmp/cc1xgNHz.s:82     .text:0000000000000040 .LFB1
     /tmp/cc1xgNHz.s:133    .text:0000000000000070 .LFE1
     /tmp/cc1xgNHz.s:2084   .debug_loc:00000000000003ce .LLST4
     /tmp/cc1xgNHz.s:2098   .debug_loc:0000000000000407 .LLST5
     /tmp/cc1xgNHz.s:2111   .debug_loc:000000000000043f .LLST6
     /tmp/cc1xgNHz.s:2287   .debug_str:00000000000003aa .LASF55
     /tmp/cc1xgNHz.s:2243   .debug_str:000000000000027d .LASF56
     /tmp/cc1xgNHz.s:10     .text:0000000000000000 .LFB0
     /tmp/cc1xgNHz.s:76     .text:0000000000000040 .LFE0
     /tmp/cc1xgNHz.s:2197   .debug_str:00000000000000a1 .LASF57
     /tmp/cc1xgNHz.s:2125   .debug_loc:0000000000000478 .LLST0
     /tmp/cc1xgNHz.s:2139   .debug_loc:00000000000004b1 .LLST1
     /tmp/cc1xgNHz.s:2241   .debug_str:0000000000000272 .LASF58
     /tmp/cc1xgNHz.s:2151   .debug_loc:00000000000004e8 .LLST2
     /tmp/cc1xgNHz.s:2291   .debug_str:00000000000003bd .LASF59
     /tmp/cc1xgNHz.s:2201   .debug_str:00000000000000bb .LASF60
     /tmp/cc1xgNHz.s:722    .text:000000000000026c .LVL46
     /tmp/cc1xgNHz.s:727    .text:0000000000000270 .LVL47
     /tmp/cc1xgNHz.s:640    .text:0000000000000220 .LVL41
     /tmp/cc1xgNHz.s:674    .text:0000000000000240 .LVL43
     /tmp/cc1xgNHz.s:648    .text:000000000000022c .LVL42
     /tmp/cc1xgNHz.s:679    .text:0000000000000244 .LVL44
     /tmp/cc1xgNHz.s:584    .text:00000000000001f0 .LVL37
     /tmp/cc1xgNHz.s:618    .text:0000000000000210 .LVL39
     /tmp/cc1xgNHz.s:592    .text:00000000000001fc .LVL38
     /tmp/cc1xgNHz.s:623    .text:0000000000000214 .LVL40
     /tmp/cc1xgNHz.s:523    .text:00000000000001bc .LVL33
     /tmp/cc1xgNHz.s:562    .text:00000000000001e0 .LVL35
     /tmp/cc1xgNHz.s:531    .text:00000000000001c8 .LVL34
     /tmp/cc1xgNHz.s:567    .text:00000000000001e4 .LVL36
     /tmp/cc1xgNHz.s:467    .text:000000000000018c .LVL29
     /tmp/cc1xgNHz.s:501    .text:00000000000001ac .LVL31
     /tmp/cc1xgNHz.s:475    .text:0000000000000198 .LVL30
     /tmp/cc1xgNHz.s:506    .text:00000000000001b0 .LVL32
     /tmp/cc1xgNHz.s:411    .text:000000000000015c .LVL25
     /tmp/cc1xgNHz.s:445    .text:000000000000017c .LVL27
GAS LISTING /tmp/cc1xgNHz.s 			page 26


     /tmp/cc1xgNHz.s:419    .text:0000000000000168 .LVL26
     /tmp/cc1xgNHz.s:450    .text:0000000000000180 .LVL28
     /tmp/cc1xgNHz.s:355    .text:000000000000012c .LVL21
     /tmp/cc1xgNHz.s:389    .text:000000000000014c .LVL23
     /tmp/cc1xgNHz.s:363    .text:0000000000000138 .LVL22
     /tmp/cc1xgNHz.s:394    .text:0000000000000150 .LVL24
     /tmp/cc1xgNHz.s:294    .text:00000000000000f8 .LVL17
     /tmp/cc1xgNHz.s:333    .text:000000000000011c .LVL19
     /tmp/cc1xgNHz.s:302    .text:0000000000000104 .LVL18
     /tmp/cc1xgNHz.s:338    .text:0000000000000120 .LVL20
     /tmp/cc1xgNHz.s:253    .text:00000000000000d8 .LVL14
     /tmp/cc1xgNHz.s:272    .text:00000000000000e8 .LVL15
     /tmp/cc1xgNHz.s:277    .text:00000000000000ec .LVL16
     /tmp/cc1xgNHz.s:142    .text:0000000000000070 .LVL9
     /tmp/cc1xgNHz.s:186    .text:0000000000000098 .LVL11
     /tmp/cc1xgNHz.s:191    .text:000000000000009c .LVL12
     /tmp/cc1xgNHz.s:85     .text:0000000000000040 .LVL5
     /tmp/cc1xgNHz.s:120    .text:0000000000000060 .LVL7
     /tmp/cc1xgNHz.s:93     .text:000000000000004c .LVL6
     /tmp/cc1xgNHz.s:125    .text:0000000000000064 .LVL8
     /tmp/cc1xgNHz.s:14     .text:0000000000000000 .LVL0
     /tmp/cc1xgNHz.s:31     .text:0000000000000018 .LVL2
     /tmp/cc1xgNHz.s:22     .text:000000000000000c .LVL1
     /tmp/cc1xgNHz.s:64     .text:0000000000000034 .LVL4
     /tmp/cc1xgNHz.s:37     .text:0000000000000020 .LVL3
     /tmp/cc1xgNHz.s:787    .debug_info:0000000000000000 .Ldebug_info0

NO UNDEFINED SYMBOLS
