GAS LISTING /tmp/cc1xgNHz.s 			page 1


   1              		.file	"syscall_c.cpp"
   2              		.option pic
   3              		.option norelax
   4              		.text
   5              	.Ltext0:
   6              		.align	2
   7              		.globl	_Z9mem_allocm
   9              	_Z9mem_allocm:
  10              	.LFB0:
  11              		.file 1 "src/syscall_c.cpp"
   1:src/syscall_c.cpp **** #include "../h/syscall_c.h"
   2:src/syscall_c.cpp **** 
   3:src/syscall_c.cpp **** #include "../h/print.hpp"
   4:src/syscall_c.cpp **** 
   5:src/syscall_c.cpp **** void* mem_alloc(size_t size)
   6:src/syscall_c.cpp **** {
  12              		.loc 1 6 1
  13              		.cfi_startproc
  14              	.LVL0:
  15 0000 130101FF 		addi	sp,sp,-16
  16              		.cfi_def_cfa_offset 16
  17 0004 23348100 		sd	s0,8(sp)
  18              		.cfi_offset 8, -8
  19 0008 13040101 		addi	s0,sp,16
  20              		.cfi_def_cfa 8, 0
   7:src/syscall_c.cpp ****     uint64 code = 0x01;
  21              		.loc 1 7 5
  22              	.LVL1:
   8:src/syscall_c.cpp ****     void* ret = nullptr;
  23              		.loc 1 8 5
   9:src/syscall_c.cpp ****     size_t sizeBlocks = size % MEM_BLOCK_SIZE ? MEM_BLOCK_SIZE * (size / MEM_BLOCK_SIZE + 1) : size
  24              		.loc 1 9 5
  25              		.loc 1 9 30 is_stmt 0
  26 000c 9377F503 		andi	a5,a0,63
  27              		.loc 1 9 47
  28 0010 63880700 		beqz	a5,.L2
  29              		.loc 1 9 72 discriminator 1
  30 0014 13556500 		srli	a0,a0,6
  31              	.LVL2:
  32              		.loc 1 9 89 discriminator 1
  33 0018 13051500 		addi	a0,a0,1
  34              		.loc 1 9 47 discriminator 1
  35 001c 13156500 		slli	a0,a0,6
  36              	.L2:
  37              	.LVL3:
  10:src/syscall_c.cpp ****     uint64 newSize = (uint64)sizeBlocks;
  38              		.loc 1 10 5 is_stmt 1 discriminator 4
  11:src/syscall_c.cpp ****     __asm__ volatile("mv a1, %0" : : "r" (newSize));
  39              		.loc 1 11 5 discriminator 4
  40              		.loc 1 11 52 is_stmt 0 discriminator 4
  41              	#APP
  42              	# 11 "src/syscall_c.cpp" 1
  12              	    __asm__ volatile("mv a0, %0" : : "r" (code));
  43              		mv a1, a0
  44              	# 0 "" 2
  45              		.loc 1 12 5 is_stmt 1 discriminator 4
  46              		.loc 1 12 49 is_stmt 0 discriminator 4
GAS LISTING /tmp/cc1xgNHz.s 			page 2


  47              	#NO_APP
  48 0024 93071000 		li	a5,1
  49              	#APP
  50              	# 12 "src/syscall_c.cpp" 1
  13              	
  14:src/syscall_c.cpp **** 
  15:src/syscall_c.cpp ****     //poziv za prelaz u sistemski rezim zbog obrade
  16:src/syscall_c.cpp ****     __asm__ volatile("ecall");
  51              		mv a0, a5
  52              	# 0 "" 2
  53              		.loc 1 16 5 is_stmt 1 discriminator 4
  54              		.loc 1 16 30 is_stmt 0 discriminator 4
  55              	# 16 "src/syscall_c.cpp" 1
  17              	    //upis povratne vrednosti koja se cuva u a0 registru
  18:src/syscall_c.cpp ****     uint64 rret;
  56              		ecall
  57              	# 0 "" 2
  58              		.loc 1 18 5 is_stmt 1 discriminator 4
  19:src/syscall_c.cpp ****     __asm__ volatile("mv %[rt], a0" : [rt] "=r" (rret));
  59              		.loc 1 19 5 discriminator 4
  60              		.loc 1 19 56 is_stmt 0 discriminator 4
  61              	# 19 "src/syscall_c.cpp" 1
  20              	    ret = (void*)rret;
  62              		mv a0, a0
  63              	# 0 "" 2
  64              	.LVL4:
  65              		.loc 1 20 5 is_stmt 1 discriminator 4
  21:src/syscall_c.cpp ****     return ret;
  66              		.loc 1 21 5 discriminator 4
  22:src/syscall_c.cpp **** }
  67              		.loc 1 22 1 is_stmt 0 discriminator 4
  68              	#NO_APP
  69 0034 03348100 		ld	s0,8(sp)
  70              		.cfi_restore 8
  71              		.cfi_def_cfa 2, 16
  72 0038 13010101 		addi	sp,sp,16
  73              		.cfi_def_cfa_offset 0
  74 003c 67800000 		jr	ra
  75              		.cfi_endproc
  76              	.LFE0:
  78              		.align	2
  79              		.globl	_Z8mem_freePv
  81              	_Z8mem_freePv:
  82              	.LFB1:
  23:src/syscall_c.cpp **** 
  24:src/syscall_c.cpp **** int mem_free(void* p)
  25:src/syscall_c.cpp **** {
  83              		.loc 1 25 1 is_stmt 1
  84              		.cfi_startproc
  85              	.LVL5:
  86 0040 130101FF 		addi	sp,sp,-16
  87              		.cfi_def_cfa_offset 16
  88 0044 23348100 		sd	s0,8(sp)
  89              		.cfi_offset 8, -8
  90 0048 13040101 		addi	s0,sp,16
  91              		.cfi_def_cfa 8, 0
  26:src/syscall_c.cpp ****     uint64 ret = -2;
GAS LISTING /tmp/cc1xgNHz.s 			page 3


  92              		.loc 1 26 5
  93              	.LVL6:
  27:src/syscall_c.cpp ****     uint64 ptr = (uint64)p;
  94              		.loc 1 27 5
  28:src/syscall_c.cpp ****     uint64 code = 0x02;
  95              		.loc 1 28 5
  29:src/syscall_c.cpp ****     __asm__ volatile("mv a1, %0" : : "r" (ptr));
  96              		.loc 1 29 5
  97              		.loc 1 29 48 is_stmt 0
  98              	#APP
  99              	# 29 "src/syscall_c.cpp" 1
  30              	    __asm__ volatile("mv a0, %0" : : "r" (code));
 100              		mv a1, a0
 101              	# 0 "" 2
 102              		.loc 1 30 5 is_stmt 1
 103              		.loc 1 30 49 is_stmt 0
 104              	#NO_APP
 105 0050 93072000 		li	a5,2
 106              	#APP
 107              	# 30 "src/syscall_c.cpp" 1
  31              	    __asm__ volatile("ecall");
 108              		mv a0, a5
 109              	# 0 "" 2
 110              		.loc 1 31 5 is_stmt 1
 111              		.loc 1 31 30 is_stmt 0
 112              	# 31 "src/syscall_c.cpp" 1
  32              	    __asm__ volatile("mv %0, a0" : "=r" (ret));
 113              		ecall
 114              	# 0 "" 2
 115              		.loc 1 32 5 is_stmt 1
 116              		.loc 1 32 47 is_stmt 0
 117              	# 32 "src/syscall_c.cpp" 1
  33              	    return (int)ret;
 118              		mv a0, a0
 119              	# 0 "" 2
 120              	.LVL7:
 121              		.loc 1 33 5 is_stmt 1
  34:src/syscall_c.cpp **** }
 122              		.loc 1 34 1 is_stmt 0
 123              	#NO_APP
 124 0060 1B050500 		sext.w	a0,a0
 125              	.LVL8:
 126 0064 03348100 		ld	s0,8(sp)
 127              		.cfi_restore 8
 128              		.cfi_def_cfa 2, 16
 129 0068 13010101 		addi	sp,sp,16
 130              		.cfi_def_cfa_offset 0
 131 006c 67800000 		jr	ra
 132              		.cfi_endproc
 133              	.LFE1:
 135              		.align	2
 136              		.globl	_Z13thread_createPP7_threadPFvPvES2_
 138              	_Z13thread_createPP7_threadPFvPvES2_:
 139              	.LFB2:
  35:src/syscall_c.cpp **** 
  36:src/syscall_c.cpp **** int thread_create (thread_t* handle, void(*start_routine)(void*), void* arg)
  37:src/syscall_c.cpp **** {
GAS LISTING /tmp/cc1xgNHz.s 			page 4


 140              		.loc 1 37 1 is_stmt 1
 141              		.cfi_startproc
 142              	.LVL9:
 143 0070 130101FF 		addi	sp,sp,-16
 144              		.cfi_def_cfa_offset 16
 145 0074 23348100 		sd	s0,8(sp)
 146              		.cfi_offset 8, -8
 147 0078 13040101 		addi	s0,sp,16
 148              		.cfi_def_cfa 8, 0
  38:src/syscall_c.cpp ****     uint64 code = 0x11;
 149              		.loc 1 38 5
 150              	.LVL10:
  39:src/syscall_c.cpp ****     uint64 ret;
 151              		.loc 1 39 5
  40:src/syscall_c.cpp ****     __asm__ volatile("mv a3, %0" : : "r"(arg));
 152              		.loc 1 40 5
 153              		.loc 1 40 47 is_stmt 0
 154              	#APP
 155              	# 40 "src/syscall_c.cpp" 1
  41              	    __asm__ volatile("mv a2, %0" : : "r"(start_routine));
 156              		mv a3, a2
 157              	# 0 "" 2
 158              		.loc 1 41 5 is_stmt 1
 159              		.loc 1 41 57 is_stmt 0
 160              	# 41 "src/syscall_c.cpp" 1
  42              	    __asm__ volatile("mv a1, %0" : : "r"(handle));
 161              		mv a2, a1
 162              	# 0 "" 2
 163              		.loc 1 42 5 is_stmt 1
 164              		.loc 1 42 50 is_stmt 0
 165              	# 42 "src/syscall_c.cpp" 1
  43              	    __asm__ volatile("mv a0, %0" : : "r" (code));
 166              		mv a1, a0
 167              	# 0 "" 2
 168              		.loc 1 43 5 is_stmt 1
 169              		.loc 1 43 49 is_stmt 0
 170              	#NO_APP
 171 0088 93071001 		li	a5,17
 172              	#APP
 173              	# 43 "src/syscall_c.cpp" 1
  44              	    __asm__ volatile("ecall");
 174              		mv a0, a5
 175              	# 0 "" 2
 176              		.loc 1 44 5 is_stmt 1
 177              		.loc 1 44 30 is_stmt 0
 178              	# 44 "src/syscall_c.cpp" 1
  45              	    __asm__ volatile("mv %0, a0" : "=r"(ret));
 179              		ecall
 180              	# 0 "" 2
 181              		.loc 1 45 5 is_stmt 1
 182              		.loc 1 45 46 is_stmt 0
 183              	# 45 "src/syscall_c.cpp" 1
  46              	    return (int)ret;
 184              		mv a0, a0
 185              	# 0 "" 2
 186              	.LVL11:
 187              		.loc 1 46 5 is_stmt 1
GAS LISTING /tmp/cc1xgNHz.s 			page 5


  47:src/syscall_c.cpp **** }
 188              		.loc 1 47 1 is_stmt 0
 189              	#NO_APP
 190 0098 1B050500 		sext.w	a0,a0
 191              	.LVL12:
 192 009c 03348100 		ld	s0,8(sp)
 193              		.cfi_restore 8
 194              		.cfi_def_cfa 2, 16
 195 00a0 13010101 		addi	sp,sp,16
 196              		.cfi_def_cfa_offset 0
 197 00a4 67800000 		jr	ra
 198              		.cfi_endproc
 199              	.LFE2:
 201              		.align	2
 202              		.globl	_Z15thread_dispatchv
 204              	_Z15thread_dispatchv:
 205              	.LFB3:
  48:src/syscall_c.cpp **** 
  49:src/syscall_c.cpp **** void thread_dispatch ()
  50:src/syscall_c.cpp **** {
 206              		.loc 1 50 1 is_stmt 1
 207              		.cfi_startproc
 208 00a8 130101FF 		addi	sp,sp,-16
 209              		.cfi_def_cfa_offset 16
 210 00ac 23348100 		sd	s0,8(sp)
 211              		.cfi_offset 8, -8
 212 00b0 13040101 		addi	s0,sp,16
 213              		.cfi_def_cfa 8, 0
  51:src/syscall_c.cpp ****     uint64 code = 0x13;
 214              		.loc 1 51 5
 215              	.LVL13:
  52:src/syscall_c.cpp ****     __asm__ volatile("mv a0, %0" : : "r" (code));
 216              		.loc 1 52 5
 217              		.loc 1 52 49 is_stmt 0
 218 00b4 93073001 		li	a5,19
 219              	#APP
 220              	# 52 "src/syscall_c.cpp" 1
  53              	    __asm__ volatile("ecall");
 221              		mv a0, a5
 222              	# 0 "" 2
 223              		.loc 1 53 5 is_stmt 1
 224              		.loc 1 53 30 is_stmt 0
 225              	# 53 "src/syscall_c.cpp" 1
  54              	}
 226              		ecall
 227              	# 0 "" 2
 228              		.loc 1 54 1
 229              	#NO_APP
 230 00c0 03348100 		ld	s0,8(sp)
 231              		.cfi_restore 8
 232              		.cfi_def_cfa 2, 16
 233 00c4 13010101 		addi	sp,sp,16
 234              		.cfi_def_cfa_offset 0
 235 00c8 67800000 		jr	ra
 236              		.cfi_endproc
 237              	.LFE3:
 239              		.align	2
GAS LISTING /tmp/cc1xgNHz.s 			page 6


 240              		.globl	_Z11thread_exitv
 242              	_Z11thread_exitv:
 243              	.LFB4:
  55:src/syscall_c.cpp **** 
  56:src/syscall_c.cpp **** int thread_exit()
  57:src/syscall_c.cpp **** {
 244              		.loc 1 57 1 is_stmt 1
 245              		.cfi_startproc
 246 00cc 130101FF 		addi	sp,sp,-16
 247              		.cfi_def_cfa_offset 16
 248 00d0 23348100 		sd	s0,8(sp)
 249              		.cfi_offset 8, -8
 250 00d4 13040101 		addi	s0,sp,16
 251              		.cfi_def_cfa 8, 0
  58:src/syscall_c.cpp ****     uint64 ret = -2;
 252              		.loc 1 58 5
 253              	.LVL14:
  59:src/syscall_c.cpp ****     uint64 code = 0x12;
 254              		.loc 1 59 5
  60:src/syscall_c.cpp ****     __asm__ volatile("mv a0, %0" : : "r" (code));
 255              		.loc 1 60 5
 256              		.loc 1 60 49 is_stmt 0
 257 00d8 93072001 		li	a5,18
 258              	#APP
 259              	# 60 "src/syscall_c.cpp" 1
  61              	    __asm__ volatile("ecall");
 260              		mv a0, a5
 261              	# 0 "" 2
 262              		.loc 1 61 5 is_stmt 1
 263              		.loc 1 61 30 is_stmt 0
 264              	# 61 "src/syscall_c.cpp" 1
  62              	    __asm__ volatile("mv %0, a0" : "=r" (ret));
 265              		ecall
 266              	# 0 "" 2
 267              		.loc 1 62 5 is_stmt 1
 268              		.loc 1 62 47 is_stmt 0
 269              	# 62 "src/syscall_c.cpp" 1
  63              	    return (int)ret;
 270              		mv a0, a0
 271              	# 0 "" 2
 272              	.LVL15:
 273              		.loc 1 63 5 is_stmt 1
  64:src/syscall_c.cpp **** }
 274              		.loc 1 64 1 is_stmt 0
 275              	#NO_APP
 276 00e8 1B050500 		sext.w	a0,a0
 277              	.LVL16:
 278 00ec 03348100 		ld	s0,8(sp)
 279              		.cfi_restore 8
 280              		.cfi_def_cfa 2, 16
 281 00f0 13010101 		addi	sp,sp,16
 282              		.cfi_def_cfa_offset 0
 283 00f4 67800000 		jr	ra
 284              		.cfi_endproc
 285              	.LFE4:
 287              		.align	2
 288              		.globl	_Z8sem_openPP4_semj
GAS LISTING /tmp/cc1xgNHz.s 			page 7


 290              	_Z8sem_openPP4_semj:
 291              	.LFB5:
  65:src/syscall_c.cpp **** 
  66:src/syscall_c.cpp **** int sem_open(sem_t* handle, unsigned init)
  67:src/syscall_c.cpp **** {
 292              		.loc 1 67 1 is_stmt 1
 293              		.cfi_startproc
 294              	.LVL17:
 295 00f8 130101FF 		addi	sp,sp,-16
 296              		.cfi_def_cfa_offset 16
 297 00fc 23348100 		sd	s0,8(sp)
 298              		.cfi_offset 8, -8
 299 0100 13040101 		addi	s0,sp,16
 300              		.cfi_def_cfa 8, 0
  68:src/syscall_c.cpp ****     uint64 ret = -3;
 301              		.loc 1 68 5
 302              	.LVL18:
  69:src/syscall_c.cpp ****     uint64 code = 0x21;
 303              		.loc 1 69 5
  70:src/syscall_c.cpp **** 
  71:src/syscall_c.cpp ****     __asm__ volatile("mv a2, %0" : : "r" (init));
 304              		.loc 1 71 5
 305              		.loc 1 71 49 is_stmt 0
 306              	#APP
 307              	# 71 "src/syscall_c.cpp" 1
  72              	    __asm__ volatile("mv a1, %0" : : "r" ((uint64)handle));
 308              		mv a2, a1
 309              	# 0 "" 2
 310              		.loc 1 72 5 is_stmt 1
 311              		.loc 1 72 59 is_stmt 0
 312              	# 72 "src/syscall_c.cpp" 1
  73              	
  74:src/syscall_c.cpp ****     __asm__ volatile("mv a0, %0" : : "r" (code));
 313              		mv a1, a0
 314              	# 0 "" 2
 315              		.loc 1 74 5 is_stmt 1
 316              		.loc 1 74 49 is_stmt 0
 317              	#NO_APP
 318 010c 93071002 		li	a5,33
 319              	#APP
 320              	# 74 "src/syscall_c.cpp" 1
  75              	    __asm__ volatile("ecall");
 321              		mv a0, a5
 322              	# 0 "" 2
 323              		.loc 1 75 5 is_stmt 1
 324              		.loc 1 75 30 is_stmt 0
 325              	# 75 "src/syscall_c.cpp" 1
  76              	    __asm__ volatile("mv %0, a0" : "=r" (ret));
 326              		ecall
 327              	# 0 "" 2
 328              		.loc 1 76 5 is_stmt 1
 329              		.loc 1 76 47 is_stmt 0
 330              	# 76 "src/syscall_c.cpp" 1
  77              	    return (int)ret;
 331              		mv a0, a0
 332              	# 0 "" 2
 333              	.LVL19:
GAS LISTING /tmp/cc1xgNHz.s 			page 8


 334              		.loc 1 77 5 is_stmt 1
  78:src/syscall_c.cpp **** 
  79:src/syscall_c.cpp **** }
 335              		.loc 1 79 1 is_stmt 0
 336              	#NO_APP
 337 011c 1B050500 		sext.w	a0,a0
 338              	.LVL20:
 339 0120 03348100 		ld	s0,8(sp)
 340              		.cfi_restore 8
 341              		.cfi_def_cfa 2, 16
 342 0124 13010101 		addi	sp,sp,16
 343              		.cfi_def_cfa_offset 0
 344 0128 67800000 		jr	ra
 345              		.cfi_endproc
 346              	.LFE5:
 348              		.align	2
 349              		.globl	_Z9sem_closeP4_sem
 351              	_Z9sem_closeP4_sem:
 352              	.LFB6:
  80:src/syscall_c.cpp **** int sem_close(sem_t handle)
  81:src/syscall_c.cpp **** {
 353              		.loc 1 81 1 is_stmt 1
 354              		.cfi_startproc
 355              	.LVL21:
 356 012c 130101FF 		addi	sp,sp,-16
 357              		.cfi_def_cfa_offset 16
 358 0130 23348100 		sd	s0,8(sp)
 359              		.cfi_offset 8, -8
 360 0134 13040101 		addi	s0,sp,16
 361              		.cfi_def_cfa 8, 0
  82:src/syscall_c.cpp ****     uint64 ret = -3;
 362              		.loc 1 82 5
 363              	.LVL22:
  83:src/syscall_c.cpp ****     uint64 code = 0x22;
 364              		.loc 1 83 5
  84:src/syscall_c.cpp **** 
  85:src/syscall_c.cpp ****     __asm__ volatile("mv a1, %0" : : "r" ((uint64)handle));
 365              		.loc 1 85 5
 366              		.loc 1 85 59 is_stmt 0
 367              	#APP
 368              	# 85 "src/syscall_c.cpp" 1
  86              	    __asm__ volatile("mv a0, %0" : : "r" (code));
 369              		mv a1, a0
 370              	# 0 "" 2
 371              		.loc 1 86 5 is_stmt 1
 372              		.loc 1 86 49 is_stmt 0
 373              	#NO_APP
 374 013c 93072002 		li	a5,34
 375              	#APP
 376              	# 86 "src/syscall_c.cpp" 1
  87              	    __asm__ volatile("ecall");
 377              		mv a0, a5
 378              	# 0 "" 2
 379              		.loc 1 87 5 is_stmt 1
 380              		.loc 1 87 30 is_stmt 0
 381              	# 87 "src/syscall_c.cpp" 1
  88              	    __asm__ volatile("mv %0, a0" : "=r" (ret));
GAS LISTING /tmp/cc1xgNHz.s 			page 9


 382              		ecall
 383              	# 0 "" 2
 384              		.loc 1 88 5 is_stmt 1
 385              		.loc 1 88 47 is_stmt 0
 386              	# 88 "src/syscall_c.cpp" 1
  89              	    return (int)ret;
 387              		mv a0, a0
 388              	# 0 "" 2
 389              	.LVL23:
 390              		.loc 1 89 5 is_stmt 1
  90:src/syscall_c.cpp **** }
 391              		.loc 1 90 1 is_stmt 0
 392              	#NO_APP
 393 014c 1B050500 		sext.w	a0,a0
 394              	.LVL24:
 395 0150 03348100 		ld	s0,8(sp)
 396              		.cfi_restore 8
 397              		.cfi_def_cfa 2, 16
 398 0154 13010101 		addi	sp,sp,16
 399              		.cfi_def_cfa_offset 0
 400 0158 67800000 		jr	ra
 401              		.cfi_endproc
 402              	.LFE6:
 404              		.align	2
 405              		.globl	_Z8sem_waitP4_sem
 407              	_Z8sem_waitP4_sem:
 408              	.LFB7:
  91:src/syscall_c.cpp **** int sem_wait(sem_t id)
  92:src/syscall_c.cpp **** {
 409              		.loc 1 92 1 is_stmt 1
 410              		.cfi_startproc
 411              	.LVL25:
 412 015c 130101FF 		addi	sp,sp,-16
 413              		.cfi_def_cfa_offset 16
 414 0160 23348100 		sd	s0,8(sp)
 415              		.cfi_offset 8, -8
 416 0164 13040101 		addi	s0,sp,16
 417              		.cfi_def_cfa 8, 0
  93:src/syscall_c.cpp ****     uint64 ret = -3;
 418              		.loc 1 93 5
 419              	.LVL26:
  94:src/syscall_c.cpp ****     uint64 code = 0x23;
 420              		.loc 1 94 5
  95:src/syscall_c.cpp **** 
  96:src/syscall_c.cpp ****     __asm__ volatile("mv a1, %0" : : "r" ((uint64)id));
 421              		.loc 1 96 5
 422              		.loc 1 96 55 is_stmt 0
 423              	#APP
 424              	# 96 "src/syscall_c.cpp" 1
  97              	    __asm__ volatile("mv a0, %0" : : "r" (code));
 425              		mv a1, a0
 426              	# 0 "" 2
 427              		.loc 1 97 5 is_stmt 1
 428              		.loc 1 97 49 is_stmt 0
 429              	#NO_APP
 430 016c 93073002 		li	a5,35
 431              	#APP
GAS LISTING /tmp/cc1xgNHz.s 			page 10


 432              	# 97 "src/syscall_c.cpp" 1
  98              	    __asm__ volatile("ecall");
 433              		mv a0, a5
 434              	# 0 "" 2
 435              		.loc 1 98 5 is_stmt 1
 436              		.loc 1 98 30 is_stmt 0
 437              	# 98 "src/syscall_c.cpp" 1
  99              	    __asm__ volatile("mv %0, a0" : "=r" (ret));
 438              		ecall
 439              	# 0 "" 2
 440              		.loc 1 99 5 is_stmt 1
 441              		.loc 1 99 47 is_stmt 0
 442              	# 99 "src/syscall_c.cpp" 1
 100              	    return (int)ret;
 443              		mv a0, a0
 444              	# 0 "" 2
 445              	.LVL27:
 446              		.loc 1 100 5 is_stmt 1
 101:src/syscall_c.cpp **** }
 447              		.loc 1 101 1 is_stmt 0
 448              	#NO_APP
 449 017c 1B050500 		sext.w	a0,a0
 450              	.LVL28:
 451 0180 03348100 		ld	s0,8(sp)
 452              		.cfi_restore 8
 453              		.cfi_def_cfa 2, 16
 454 0184 13010101 		addi	sp,sp,16
 455              		.cfi_def_cfa_offset 0
 456 0188 67800000 		jr	ra
 457              		.cfi_endproc
 458              	.LFE7:
 460              		.align	2
 461              		.globl	_Z10sem_signalP4_sem
 463              	_Z10sem_signalP4_sem:
 464              	.LFB8:
 102:src/syscall_c.cpp **** int sem_signal(sem_t id)
 103:src/syscall_c.cpp **** {
 465              		.loc 1 103 1 is_stmt 1
 466              		.cfi_startproc
 467              	.LVL29:
 468 018c 130101FF 		addi	sp,sp,-16
 469              		.cfi_def_cfa_offset 16
 470 0190 23348100 		sd	s0,8(sp)
 471              		.cfi_offset 8, -8
 472 0194 13040101 		addi	s0,sp,16
 473              		.cfi_def_cfa 8, 0
 104:src/syscall_c.cpp ****     uint64 ret = -3;
 474              		.loc 1 104 5
 475              	.LVL30:
 105:src/syscall_c.cpp ****     uint64 code = 0x24;
 476              		.loc 1 105 5
 106:src/syscall_c.cpp **** 
 107:src/syscall_c.cpp ****     __asm__ volatile("mv a1, %0" : : "r" (id));
 477              		.loc 1 107 5
 478              		.loc 1 107 47 is_stmt 0
 479              	#APP
 480              	# 107 "src/syscall_c.cpp" 1
GAS LISTING /tmp/cc1xgNHz.s 			page 11


 108              	    __asm__ volatile("mv a0, %0" : : "r" (code));
 481              		mv a1, a0
 482              	# 0 "" 2
 483              		.loc 1 108 5 is_stmt 1
 484              		.loc 1 108 49 is_stmt 0
 485              	#NO_APP
 486 019c 93074002 		li	a5,36
 487              	#APP
 488              	# 108 "src/syscall_c.cpp" 1
 109              	    __asm__ volatile("ecall");
 489              		mv a0, a5
 490              	# 0 "" 2
 491              		.loc 1 109 5 is_stmt 1
 492              		.loc 1 109 30 is_stmt 0
 493              	# 109 "src/syscall_c.cpp" 1
 110              	    __asm__ volatile("mv %0, a0" : "=r" (ret));
 494              		ecall
 495              	# 0 "" 2
 496              		.loc 1 110 5 is_stmt 1
 497              		.loc 1 110 47 is_stmt 0
 498              	# 110 "src/syscall_c.cpp" 1
 111              	    return (int)ret;
 499              		mv a0, a0
 500              	# 0 "" 2
 501              	.LVL31:
 502              		.loc 1 111 5 is_stmt 1
 112:src/syscall_c.cpp **** }
 503              		.loc 1 112 1 is_stmt 0
 504              	#NO_APP
 505 01ac 1B050500 		sext.w	a0,a0
 506              	.LVL32:
 507 01b0 03348100 		ld	s0,8(sp)
 508              		.cfi_restore 8
 509              		.cfi_def_cfa 2, 16
 510 01b4 13010101 		addi	sp,sp,16
 511              		.cfi_def_cfa_offset 0
 512 01b8 67800000 		jr	ra
 513              		.cfi_endproc
 514              	.LFE8:
 516              		.align	2
 517              		.globl	_Z13sem_timedwaitP4_semm
 519              	_Z13sem_timedwaitP4_semm:
 520              	.LFB9:
 113:src/syscall_c.cpp **** int sem_timedwait(sem_t id, time_t timeout)
 114:src/syscall_c.cpp **** {
 521              		.loc 1 114 1 is_stmt 1
 522              		.cfi_startproc
 523              	.LVL33:
 524 01bc 130101FF 		addi	sp,sp,-16
 525              		.cfi_def_cfa_offset 16
 526 01c0 23348100 		sd	s0,8(sp)
 527              		.cfi_offset 8, -8
 528 01c4 13040101 		addi	s0,sp,16
 529              		.cfi_def_cfa 8, 0
 115:src/syscall_c.cpp ****     uint64 ret = -3;
 530              		.loc 1 115 5
 531              	.LVL34:
GAS LISTING /tmp/cc1xgNHz.s 			page 12


 116:src/syscall_c.cpp ****     uint64 code = 0x25;
 532              		.loc 1 116 5
 117:src/syscall_c.cpp **** 
 118:src/syscall_c.cpp ****     __asm__ volatile("mv a1, %0" : : "r" ((uint64)id));
 533              		.loc 1 118 5
 534              		.loc 1 118 55 is_stmt 0
 535              	#APP
 536              	# 118 "src/syscall_c.cpp" 1
 119              	    __asm__ volatile("mv a2, %0" : : "r" ((uint64)timeout));
 537              		mv a1, a0
 538              	# 0 "" 2
 539              		.loc 1 119 5 is_stmt 1
 540              		.loc 1 119 60 is_stmt 0
 541              	# 119 "src/syscall_c.cpp" 1
 120              	    __asm__ volatile("mv a0, %0" : : "r" (code));
 542              		mv a2, a1
 543              	# 0 "" 2
 544              		.loc 1 120 5 is_stmt 1
 545              		.loc 1 120 49 is_stmt 0
 546              	#NO_APP
 547 01d0 93075002 		li	a5,37
 548              	#APP
 549              	# 120 "src/syscall_c.cpp" 1
 121              	    __asm__ volatile("ecall");
 550              		mv a0, a5
 551              	# 0 "" 2
 552              		.loc 1 121 5 is_stmt 1
 553              		.loc 1 121 30 is_stmt 0
 554              	# 121 "src/syscall_c.cpp" 1
 122              	    __asm__ volatile("mv %0, a0" : "=r" (ret));
 555              		ecall
 556              	# 0 "" 2
 557              		.loc 1 122 5 is_stmt 1
 558              		.loc 1 122 47 is_stmt 0
 559              	# 122 "src/syscall_c.cpp" 1
 123              	    return (int)ret;
 560              		mv a0, a0
 561              	# 0 "" 2
 562              	.LVL35:
 563              		.loc 1 123 5 is_stmt 1
 124:src/syscall_c.cpp **** }
 564              		.loc 1 124 1 is_stmt 0
 565              	#NO_APP
 566 01e0 1B050500 		sext.w	a0,a0
 567              	.LVL36:
 568 01e4 03348100 		ld	s0,8(sp)
 569              		.cfi_restore 8
 570              		.cfi_def_cfa 2, 16
 571 01e8 13010101 		addi	sp,sp,16
 572              		.cfi_def_cfa_offset 0
 573 01ec 67800000 		jr	ra
 574              		.cfi_endproc
 575              	.LFE9:
 577              		.align	2
 578              		.globl	_Z11sem_trywaitP4_sem
 580              	_Z11sem_trywaitP4_sem:
 581              	.LFB10:
GAS LISTING /tmp/cc1xgNHz.s 			page 13


 125:src/syscall_c.cpp **** int sem_trywait(sem_t id)
 126:src/syscall_c.cpp **** {
 582              		.loc 1 126 1 is_stmt 1
 583              		.cfi_startproc
 584              	.LVL37:
 585 01f0 130101FF 		addi	sp,sp,-16
 586              		.cfi_def_cfa_offset 16
 587 01f4 23348100 		sd	s0,8(sp)
 588              		.cfi_offset 8, -8
 589 01f8 13040101 		addi	s0,sp,16
 590              		.cfi_def_cfa 8, 0
 127:src/syscall_c.cpp ****     uint64 ret = -3;
 591              		.loc 1 127 5
 592              	.LVL38:
 128:src/syscall_c.cpp ****     uint64 code = 0x26;
 593              		.loc 1 128 5
 129:src/syscall_c.cpp **** 
 130:src/syscall_c.cpp ****     __asm__ volatile("mv a1, %0" : : "r" ((uint64)id));
 594              		.loc 1 130 5
 595              		.loc 1 130 55 is_stmt 0
 596              	#APP
 597              	# 130 "src/syscall_c.cpp" 1
 131              	    __asm__ volatile("mv a0, %0" : : "r" (code));
 598              		mv a1, a0
 599              	# 0 "" 2
 600              		.loc 1 131 5 is_stmt 1
 601              		.loc 1 131 49 is_stmt 0
 602              	#NO_APP
 603 0200 93076002 		li	a5,38
 604              	#APP
 605              	# 131 "src/syscall_c.cpp" 1
 132              	    __asm__ volatile("ecall");
 606              		mv a0, a5
 607              	# 0 "" 2
 608              		.loc 1 132 5 is_stmt 1
 609              		.loc 1 132 30 is_stmt 0
 610              	# 132 "src/syscall_c.cpp" 1
 133              	    __asm__ volatile("mv %0, a0" : "=r" (ret));
 611              		ecall
 612              	# 0 "" 2
 613              		.loc 1 133 5 is_stmt 1
 614              		.loc 1 133 47 is_stmt 0
 615              	# 133 "src/syscall_c.cpp" 1
 134              	    return (int)ret;
 616              		mv a0, a0
 617              	# 0 "" 2
 618              	.LVL39:
 619              		.loc 1 134 5 is_stmt 1
 135:src/syscall_c.cpp **** }
 620              		.loc 1 135 1 is_stmt 0
 621              	#NO_APP
 622 0210 1B050500 		sext.w	a0,a0
 623              	.LVL40:
 624 0214 03348100 		ld	s0,8(sp)
 625              		.cfi_restore 8
 626              		.cfi_def_cfa 2, 16
 627 0218 13010101 		addi	sp,sp,16
GAS LISTING /tmp/cc1xgNHz.s 			page 14


 628              		.cfi_def_cfa_offset 0
 629 021c 67800000 		jr	ra
 630              		.cfi_endproc
 631              	.LFE10:
 633              		.align	2
 634              		.globl	_Z10time_sleepm
 636              	_Z10time_sleepm:
 637              	.LFB11:
 136:src/syscall_c.cpp **** 
 137:src/syscall_c.cpp **** int time_sleep (time_t time)
 138:src/syscall_c.cpp **** {
 638              		.loc 1 138 1 is_stmt 1
 639              		.cfi_startproc
 640              	.LVL41:
 641 0220 130101FF 		addi	sp,sp,-16
 642              		.cfi_def_cfa_offset 16
 643 0224 23348100 		sd	s0,8(sp)
 644              		.cfi_offset 8, -8
 645 0228 13040101 		addi	s0,sp,16
 646              		.cfi_def_cfa 8, 0
 139:src/syscall_c.cpp ****     uint64 ret = -3;
 647              		.loc 1 139 5
 648              	.LVL42:
 140:src/syscall_c.cpp ****     uint64 code = 0x31;
 649              		.loc 1 140 5
 141:src/syscall_c.cpp **** 
 142:src/syscall_c.cpp ****     __asm__ volatile("mv a1, %0" : : "r" ((uint64)time));
 650              		.loc 1 142 5
 651              		.loc 1 142 57 is_stmt 0
 652              	#APP
 653              	# 142 "src/syscall_c.cpp" 1
 143              	    __asm__ volatile("mv a0, %0" : : "r" (code));
 654              		mv a1, a0
 655              	# 0 "" 2
 656              		.loc 1 143 5 is_stmt 1
 657              		.loc 1 143 49 is_stmt 0
 658              	#NO_APP
 659 0230 93071003 		li	a5,49
 660              	#APP
 661              	# 143 "src/syscall_c.cpp" 1
 144              	    __asm__ volatile("ecall");
 662              		mv a0, a5
 663              	# 0 "" 2
 664              		.loc 1 144 5 is_stmt 1
 665              		.loc 1 144 30 is_stmt 0
 666              	# 144 "src/syscall_c.cpp" 1
 145              	    __asm__ volatile("mv %0, a0" : "=r" (ret));
 667              		ecall
 668              	# 0 "" 2
 669              		.loc 1 145 5 is_stmt 1
 670              		.loc 1 145 47 is_stmt 0
 671              	# 145 "src/syscall_c.cpp" 1
 146              	    return (int)ret;
 672              		mv a0, a0
 673              	# 0 "" 2
 674              	.LVL43:
 675              		.loc 1 146 5 is_stmt 1
GAS LISTING /tmp/cc1xgNHz.s 			page 15


 147:src/syscall_c.cpp **** }
 676              		.loc 1 147 1 is_stmt 0
 677              	#NO_APP
 678 0240 1B050500 		sext.w	a0,a0
 679              	.LVL44:
 680 0244 03348100 		ld	s0,8(sp)
 681              		.cfi_restore 8
 682              		.cfi_def_cfa 2, 16
 683 0248 13010101 		addi	sp,sp,16
 684              		.cfi_def_cfa_offset 0
 685 024c 67800000 		jr	ra
 686              		.cfi_endproc
 687              	.LFE11:
 689              		.align	2
 690              		.globl	_Z4getcv
 692              	_Z4getcv:
 693              	.LFB12:
 148:src/syscall_c.cpp **** 
 149:src/syscall_c.cpp **** char getc()
 150:src/syscall_c.cpp **** {
 694              		.loc 1 150 1 is_stmt 1
 695              		.cfi_startproc
 696 0250 130101FF 		addi	sp,sp,-16
 697              		.cfi_def_cfa_offset 16
 698 0254 23348100 		sd	s0,8(sp)
 699              		.cfi_offset 8, -8
 700 0258 13040101 		addi	s0,sp,16
 701              		.cfi_def_cfa 8, 0
 151:src/syscall_c.cpp ****     uint64 code = 0x41;
 702              		.loc 1 151 5
 703              	.LVL45:
 152:src/syscall_c.cpp ****     __asm__ volatile("mv a0, %0" : : "r" (code));
 704              		.loc 1 152 5
 705              		.loc 1 152 49 is_stmt 0
 706 025c 93071004 		li	a5,65
 707              	#APP
 708              	# 152 "src/syscall_c.cpp" 1
 153              	    __asm__ volatile("ecall");
 709              		mv a0, a5
 710              	# 0 "" 2
 711              		.loc 1 153 5 is_stmt 1
 712              		.loc 1 153 30 is_stmt 0
 713              	# 153 "src/syscall_c.cpp" 1
 154              	    uint64 ret;
 714              		ecall
 715              	# 0 "" 2
 716              		.loc 1 154 5 is_stmt 1
 155:src/syscall_c.cpp ****     __asm__ volatile("mv %0, a0" : "=r" (ret));
 717              		.loc 1 155 5
 718              		.loc 1 155 47 is_stmt 0
 719              	# 155 "src/syscall_c.cpp" 1
 156              	    return (char)ret;
 720              		mv a0, a0
 721              	# 0 "" 2
 722              	.LVL46:
 723              		.loc 1 156 5 is_stmt 1
 157:src/syscall_c.cpp **** }
GAS LISTING /tmp/cc1xgNHz.s 			page 16


 724              		.loc 1 157 1 is_stmt 0
 725              	#NO_APP
 726 026c 1375F50F 		andi	a0,a0,0xff
 727              	.LVL47:
 728 0270 03348100 		ld	s0,8(sp)
 729              		.cfi_restore 8
 730              		.cfi_def_cfa 2, 16
 731 0274 13010101 		addi	sp,sp,16
 732              		.cfi_def_cfa_offset 0
 733 0278 67800000 		jr	ra
 734              		.cfi_endproc
 735              	.LFE12:
 737              		.align	2
 738              		.globl	_Z4putcc
 740              	_Z4putcc:
 741              	.LFB13:
 158:src/syscall_c.cpp **** void putc(char c)
 159:src/syscall_c.cpp **** {
 742              		.loc 1 159 1 is_stmt 1
 743              		.cfi_startproc
 744              	.LVL48:
 745 027c 130101FF 		addi	sp,sp,-16
 746              		.cfi_def_cfa_offset 16
 747 0280 23348100 		sd	s0,8(sp)
 748              		.cfi_offset 8, -8
 749 0284 13040101 		addi	s0,sp,16
 750              		.cfi_def_cfa 8, 0
 160:src/syscall_c.cpp ****     uint64 code = 0x42;
 751              		.loc 1 160 5
 752              	.LVL49:
 161:src/syscall_c.cpp ****     __asm__ volatile("mv a1, %0" : : "r" ((uint64)c));
 753              		.loc 1 161 5
 754              		.loc 1 161 54 is_stmt 0
 755              	#APP
 756              	# 161 "src/syscall_c.cpp" 1
 162              	    __asm__ volatile("mv a0, %0" : : "r" (code));
 757              		mv a1, a0
 758              	# 0 "" 2
 759              		.loc 1 162 5 is_stmt 1
 760              		.loc 1 162 49 is_stmt 0
 761              	#NO_APP
 762 028c 93072004 		li	a5,66
 763              	#APP
 764              	# 162 "src/syscall_c.cpp" 1
 163              	    __asm__ volatile("ecall");
 765              		mv a0, a5
 766              	# 0 "" 2
 767              		.loc 1 163 5 is_stmt 1
 768              		.loc 1 163 30 is_stmt 0
 769              	# 163 "src/syscall_c.cpp" 1
 164              	}...
 770              		ecall
 771              	# 0 "" 2
 772              		.loc 1 164 1
 773              	#NO_APP
 774 0298 03348100 		ld	s0,8(sp)
 775              		.cfi_restore 8
GAS LISTING /tmp/cc1xgNHz.s 			page 17


 776              		.cfi_def_cfa 2, 16
 777 029c 13010101 		addi	sp,sp,16
 778              		.cfi_def_cfa_offset 0
 779 02a0 67800000 		jr	ra
 780              		.cfi_endproc
 781              	.LFE13:
 783              	.Letext0:
 784              		.file 2 "src/../h/../h/../lib/hw.h"
 785              		.file 3 "src/../h/syscall_c.h"
GAS LISTING /tmp/cc1xgNHz.s 			page 18

