GAS LISTING /tmp/ccpnCVT5.s 			page 1


   1              		.file	"tcb.cpp"
   2              		.option pic
   3              		.option norelax
   4              		.text
   5              	.Ltext0:
   6              		.align	2
   7              		.globl	_ZN3TCB12createThreadEPFvPvES0_Pm
   9              	_ZN3TCB12createThreadEPFvPvES0_Pm:
  10              	.LFB36:
  11              		.file 1 "src/tcb.cpp"
   1:src/tcb.cpp   **** #include "../h/tcb.hpp"
   2:src/tcb.cpp   **** #include "../h/Riscv.hpp"
   3:src/tcb.cpp   **** #include "../h/scheduler.hpp"
   4:src/tcb.cpp   **** TCB *TCB::running = nullptr;
   5:src/tcb.cpp   **** uint64 TCB::timeSliceCounter = 0;
   6:src/tcb.cpp   **** 
   7:src/tcb.cpp   **** TCB *TCB::createThread(Body body,void* arg,uint64* st)
   8:src/tcb.cpp   **** {
  12              		.loc 1 8 1
  13              		.cfi_startproc
  14              		.cfi_personality 0x9b,DW.ref.__gxx_personality_v0
  15              		.cfi_lsda 0x1b,.LLSDA36
  16              	.LVL0:
  17 0000 130101FD 		addi	sp,sp,-48
  18              		.cfi_def_cfa_offset 48
  19 0004 23341102 		sd	ra,40(sp)
  20 0008 23308102 		sd	s0,32(sp)
  21 000c 233C9100 		sd	s1,24(sp)
  22 0010 23382101 		sd	s2,16(sp)
  23 0014 23343101 		sd	s3,8(sp)
  24 0018 23304101 		sd	s4,0(sp)
  25              		.cfi_offset 1, -8
  26              		.cfi_offset 8, -16
  27              		.cfi_offset 9, -24
  28              		.cfi_offset 18, -32
  29              		.cfi_offset 19, -40
  30              		.cfi_offset 20, -48
  31 001c 13040103 		addi	s0,sp,48
  32              		.cfi_def_cfa 8, 0
  33 0020 93090500 		mv	s3,a0
  34 0024 138A0500 		mv	s4,a1
  35 0028 13090600 		mv	s2,a2
   9:src/tcb.cpp   ****     if(st == nullptr)
  36              		.loc 1 9 5
  37 002c 63020606 		beqz	a2,.L11
  38              	.LVL1:
  39              	.L2:
  10:src/tcb.cpp   ****     {
  11:src/tcb.cpp   ****         st = new uint64[DEFAULT_STACK_SIZE];
  12:src/tcb.cpp   ****     }
  13:src/tcb.cpp   ****     return new TCB(body, TIME_SLICE, arg, st);
  40              		.loc 1 13 5
  41              		.loc 1 13 45 is_stmt 0
  42 0030 13050004 		li	a0,64
  43              	.LEHB0:
  44 0034 97000000 		call	_Znwm@plt
  44      E7800000 
GAS LISTING /tmp/ccpnCVT5.s 			page 2


  45              	.LVL2:
  46              	.LEHE0:
  47 003c 93040500 		mv	s1,a0
  48              	.LVL3:
  49              	.LBB9:
  50              	.LBB10:
  51              		.file 2 "src/../h/tcb.hpp"
   1:src/../h/tcb.hpp **** #ifndef OS1_VEZBE07_RISCV_CONTEXT_SWITCH_2_INTERRUPT_TCB_HPP
   2:src/../h/tcb.hpp **** #define OS1_VEZBE07_RISCV_CONTEXT_SWITCH_2_INTERRUPT_TCB_HPP
   3:src/../h/tcb.hpp **** 
   4:src/../h/tcb.hpp **** #include "../lib/hw.h"
   5:src/../h/tcb.hpp **** #include "scheduler.hpp"
   6:src/../h/tcb.hpp **** #include "syscall_c.h"
   7:src/../h/tcb.hpp **** class TCB
   8:src/../h/tcb.hpp **** {
   9:src/../h/tcb.hpp **** public:
  10:src/../h/tcb.hpp **** 
  11:src/../h/tcb.hpp ****     void setStatus(int s) { status = s; }
  12:src/../h/tcb.hpp ****     //s = 01 (1)blocked
  13:src/../h/tcb.hpp ****     //s = 10 (2)sleeping
  14:src/../h/tcb.hpp ****     //s = 11 (3)blocked i sleeping
  15:src/../h/tcb.hpp ****     int readStatus(){ return status; }
  16:src/../h/tcb.hpp **** 
  17:src/../h/tcb.hpp ****     ~TCB() { delete[] stack; }
  18:src/../h/tcb.hpp **** 
  19:src/../h/tcb.hpp ****     bool isFinished() const { return finished; }
  20:src/../h/tcb.hpp **** 
  21:src/../h/tcb.hpp ****     void setFinished(bool value) { finished = value; }
  22:src/../h/tcb.hpp **** 
  23:src/../h/tcb.hpp ****     uint64 getTimeSlice() const { return timeSlice; }
  24:src/../h/tcb.hpp **** 
  25:src/../h/tcb.hpp ****     using Body = void (*)(void*);
  26:src/../h/tcb.hpp **** 
  27:src/../h/tcb.hpp ****     static TCB *createThread(Body body,void* arg,uint64* st = nullptr);
  28:src/../h/tcb.hpp **** 
  29:src/../h/tcb.hpp ****     static void yield();
  30:src/../h/tcb.hpp **** 
  31:src/../h/tcb.hpp ****     static TCB *running;
  32:src/../h/tcb.hpp **** 
  33:src/../h/tcb.hpp **** 
  34:src/../h/tcb.hpp **** private:
  35:src/../h/tcb.hpp ****     TCB(Body body, uint64 timeSlice,void* arg, uint64* st) :
  36:src/../h/tcb.hpp ****             body(body),
  37:src/../h/tcb.hpp ****             stack(body != nullptr ? st : nullptr),
  38:src/../h/tcb.hpp ****             context({(uint64) &threadWrapper,
  39:src/../h/tcb.hpp ****                      stack != nullptr ? (uint64) &stack[DEFAULT_STACK_SIZE] : 0
  40:src/../h/tcb.hpp ****                     }),
  41:src/../h/tcb.hpp ****             timeSlice(timeSlice),
  42:src/../h/tcb.hpp ****             finished(false),
  43:src/../h/tcb.hpp ****             arg(arg)
  52              		.loc 2 43 20
  53 0040 23303501 		sd	s3,0(a0)
  37:src/../h/tcb.hpp ****             context({(uint64) &threadWrapper,
  54              		.loc 2 37 35
  55 0044 63800906 		beqz	s3,.L12
  56              	.LVL4:
  57              	.L3:
GAS LISTING /tmp/ccpnCVT5.s 			page 3


  58              		.loc 2 43 20
  59 0048 23B42401 		sd	s2,8(s1)
  60 004c 97070000 		lla	a5,_ZN3TCB13threadWrapperEv
  60      93870700 
  61 0054 23B8F400 		sd	a5,16(s1)
  39:src/../h/tcb.hpp ****                     }),
  62              		.loc 2 39 39
  63 0058 630A0904 		beqz	s2,.L8
  39:src/../h/tcb.hpp ****                     }),
  64              		.loc 2 39 50
  65 005c 37860000 		li	a2,32768
  66 0060 3309C900 		add	s2,s2,a2
  67              	.L4:
  68              		.loc 2 43 20
  69 0064 23BC2401 		sd	s2,24(s1)
  70 0068 93072000 		li	a5,2
  71 006c 23B0F402 		sd	a5,32(s1)
  72 0070 23840402 		sb	zero,40(s1)
  73 0074 23B84403 		sd	s4,48(s1)
  74 0078 23AC0402 		sw	zero,56(s1)
  44:src/../h/tcb.hpp ****     {
  45:src/../h/tcb.hpp ****         if (body != nullptr) { Scheduler::put((TCB*)this); }
  75              		.loc 2 45 9 is_stmt 1
  76 007c 638A0904 		beqz	s3,.L1
  77              		.loc 2 45 32
  78              		.loc 2 45 46 is_stmt 0
  79 0080 13850400 		mv	a0,s1
  80              	.LEHB1:
  81 0084 97000000 		call	_ZN9Scheduler3putEP3TCB@plt
  81      E7800000 
  82              	.LVL5:
  83              	.LEHE1:
  84 008c 6F004004 		j	.L1
  85              	.LVL6:
  86              	.L11:
  87              	.LBE10:
  88              	.LBE9:
  11:src/tcb.cpp   ****     }
  89              		.loc 1 11 9 is_stmt 1
  11:src/tcb.cpp   ****     }
  90              		.loc 1 11 43 is_stmt 0
  91 0090 37850000 		li	a0,32768
  92              	.LVL7:
  93              	.LEHB2:
  94 0094 97000000 		call	_Znam@plt
  94      E7800000 
  95              	.LVL8:
  96 009c 13090500 		mv	s2,a0
  97              	.LVL9:
  98 00a0 6FF01FF9 		j	.L2
  99              	.LVL10:
 100              	.L12:
 101              	.LBB12:
 102              	.LBB11:
  37:src/../h/tcb.hpp ****             context({(uint64) &threadWrapper,
 103              		.loc 2 37 35
 104 00a4 13090000 		li	s2,0
GAS LISTING /tmp/ccpnCVT5.s 			page 4


 105              	.LVL11:
 106 00a8 6FF01FFA 		j	.L3
 107              	.L8:
  39:src/../h/tcb.hpp ****                     }),
 108              		.loc 2 39 39
 109 00ac 13090000 		li	s2,0
 110 00b0 6FF05FFB 		j	.L4
 111              	.L9:
 112 00b4 13090500 		mv	s2,a0
 113              	.LBE11:
 114              	.LBE12:
 115              		.loc 1 13 45
 116 00b8 13850400 		mv	a0,s1
 117 00bc 97000000 		call	_ZdlPv@plt
 117      E7800000 
 118              	.LVL12:
 119 00c4 13050900 		mv	a0,s2
 120 00c8 97000000 		call	_Unwind_Resume@plt
 120      E7800000 
 121              	.LVL13:
 122              	.LEHE2:
 123              	.L1:
  14:src/tcb.cpp   **** }
 124              		.loc 1 14 1
 125 00d0 13850400 		mv	a0,s1
 126 00d4 83308102 		ld	ra,40(sp)
 127              		.cfi_restore 1
 128 00d8 03340102 		ld	s0,32(sp)
 129              		.cfi_restore 8
 130              		.cfi_def_cfa 2, 48
 131 00dc 83348101 		ld	s1,24(sp)
 132              		.cfi_restore 9
 133              	.LVL14:
 134 00e0 03390101 		ld	s2,16(sp)
 135              		.cfi_restore 18
 136 00e4 83398100 		ld	s3,8(sp)
 137              		.cfi_restore 19
 138              	.LVL15:
 139 00e8 033A0100 		ld	s4,0(sp)
 140              		.cfi_restore 20
 141              	.LVL16:
 142 00ec 13010103 		addi	sp,sp,48
 143              		.cfi_def_cfa_offset 0
 144 00f0 67800000 		jr	ra
 145              		.cfi_endproc
 146              	.LFE36:
 147              		.globl	__gxx_personality_v0
 148              		.section	.gcc_except_table,"a",@progbits
 149              	.LLSDA36:
 150 0000 FF       		.byte	0xff
 151 0001 FF       		.byte	0xff
 152 0002 03       		.byte	0x3
 153 0003 27       		.byte	0x27
 154 0004 00000000 		.4byte	.LEHB0-.LFB36
 155 0008 00000000 		.4byte	.LEHE0-.LEHB0
 156 000c 00000000 		.4byte	0
 157 0010 00       		.byte	0
GAS LISTING /tmp/ccpnCVT5.s 			page 5


 158 0011 00000000 		.4byte	.LEHB1-.LFB36
 159 0015 00000000 		.4byte	.LEHE1-.LEHB1
 160 0019 00000000 		.4byte	.L9-.LFB36
 161 001d 00       		.byte	0
 162 001e 00000000 		.4byte	.LEHB2-.LFB36
 163 0022 00000000 		.4byte	.LEHE2-.LEHB2
 164 0026 00000000 		.4byte	0
 165 002a 00       		.byte	0
 166              		.text
 168              		.align	2
 169              		.globl	_ZN3TCB5yieldEv
 171              	_ZN3TCB5yieldEv:
 172              	.LFB37:
  15:src/tcb.cpp   **** 
  16:src/tcb.cpp   **** void TCB::yield()
  17:src/tcb.cpp   **** {
 173              		.loc 1 17 1 is_stmt 1
 174              		.cfi_startproc
 175 00f4 130101FF 		addi	sp,sp,-16
 176              		.cfi_def_cfa_offset 16
 177 00f8 23341100 		sd	ra,8(sp)
 178 00fc 23308100 		sd	s0,0(sp)
 179              		.cfi_offset 1, -8
 180              		.cfi_offset 8, -16
 181 0100 13040101 		addi	s0,sp,16
 182              		.cfi_def_cfa 8, 0
  18:src/tcb.cpp   ****     thread_dispatch();
 183              		.loc 1 18 5
 184              		.loc 1 18 20 is_stmt 0
 185 0104 97000000 		call	_Z15thread_dispatchv@plt
 185      E7800000 
 186              	.LVL17:
  19:src/tcb.cpp   **** }
 187              		.loc 1 19 1
 188 010c 83308100 		ld	ra,8(sp)
 189              		.cfi_restore 1
 190 0110 03340100 		ld	s0,0(sp)
 191              		.cfi_restore 8
 192              		.cfi_def_cfa 2, 16
 193 0114 13010101 		addi	sp,sp,16
 194              		.cfi_def_cfa_offset 0
 195 0118 67800000 		jr	ra
 196              		.cfi_endproc
 197              	.LFE37:
 199              		.align	2
 200              		.globl	_ZN3TCB13threadWrapperEv
 202              	_ZN3TCB13threadWrapperEv:
 203              	.LFB39:
  20:src/tcb.cpp   **** 
  21:src/tcb.cpp   **** void TCB::dispatch()
  22:src/tcb.cpp   **** {
  23:src/tcb.cpp   ****     timeSliceCounter = 0;
  24:src/tcb.cpp   ****     TCB *old = running;
  25:src/tcb.cpp   ****     if (!old->isFinished() && !old->status) {
  26:src/tcb.cpp   ****         Scheduler::put(old); }
  27:src/tcb.cpp   ****     running = Scheduler::get();
  28:src/tcb.cpp   **** 
GAS LISTING /tmp/ccpnCVT5.s 			page 6


  29:src/tcb.cpp   ****     TCB::contextSwitch(&old->context, &running->context);
  30:src/tcb.cpp   **** }
  31:src/tcb.cpp   **** 
  32:src/tcb.cpp   **** void TCB::threadWrapper()
  33:src/tcb.cpp   **** {
 204              		.loc 1 33 1 is_stmt 1
 205              		.cfi_startproc
 206 011c 130101FE 		addi	sp,sp,-32
 207              		.cfi_def_cfa_offset 32
 208 0120 233C1100 		sd	ra,24(sp)
 209 0124 23388100 		sd	s0,16(sp)
 210 0128 23349100 		sd	s1,8(sp)
 211              		.cfi_offset 1, -8
 212              		.cfi_offset 8, -16
 213              		.cfi_offset 9, -24
 214 012c 13040102 		addi	s0,sp,32
 215              		.cfi_def_cfa 8, 0
  34:src/tcb.cpp   ****     Riscv::popSppSpie();
 216              		.loc 1 34 5
 217              		.loc 1 34 22 is_stmt 0
 218 0130 97000000 		call	_ZN5Riscv10popSppSpieEv@plt
 218      E7800000 
 219              	.LVL18:
  35:src/tcb.cpp   ****     running->body(running->arg);
 220              		.loc 1 35 5 is_stmt 1
 221              		.loc 1 35 14 is_stmt 0
 222 0138 97040000 		lla	s1,.LANCHOR0
 222      93840400 
 223 0140 83B70400 		ld	a5,0(s1)
 224 0144 03B70700 		ld	a4,0(a5)
 225              		.loc 1 35 18
 226 0148 03B50703 		ld	a0,48(a5)
 227 014c E7000700 		jalr	a4
 228              	.LVL19:
  36:src/tcb.cpp   ****     running->setFinished(true);
 229              		.loc 1 36 5 is_stmt 1
 230              		.loc 1 36 25 is_stmt 0
 231 0150 83B70400 		ld	a5,0(s1)
 232              	.LVL20:
 233              	.LBB13:
 234              	.LBB14:
  21:src/../h/tcb.hpp **** 
 235              		.loc 2 21 36 is_stmt 1
  21:src/../h/tcb.hpp **** 
 236              		.loc 2 21 45 is_stmt 0
 237 0154 13071000 		li	a4,1
 238 0158 2384E702 		sb	a4,40(a5)
 239              	.LVL21:
 240              	.LBE14:
 241              	.LBE13:
  37:src/tcb.cpp   ****     TCB::yield();
 242              		.loc 1 37 5 is_stmt 1
 243              		.loc 1 37 15 is_stmt 0
 244 015c 97000000 		call	_ZN3TCB5yieldEv
 244      E7800000 
 245              	.LVL22:
  38:src/tcb.cpp   **** }
GAS LISTING /tmp/ccpnCVT5.s 			page 7


 246              		.loc 1 38 1
 247 0164 83308101 		ld	ra,24(sp)
 248              		.cfi_restore 1
 249 0168 03340101 		ld	s0,16(sp)
 250              		.cfi_restore 8
 251              		.cfi_def_cfa 2, 32
 252 016c 83348100 		ld	s1,8(sp)
 253              		.cfi_restore 9
 254 0170 13010102 		addi	sp,sp,32
 255              		.cfi_def_cfa_offset 0
 256 0174 67800000 		jr	ra
 257              		.cfi_endproc
 258              	.LFE39:
 260              		.align	2
 261              		.globl	_ZN3TCB8dispatchEv
 263              	_ZN3TCB8dispatchEv:
 264              	.LFB38:
  22:src/tcb.cpp   ****     timeSliceCounter = 0;
 265              		.loc 1 22 1 is_stmt 1
 266              		.cfi_startproc
 267 0178 130101FE 		addi	sp,sp,-32
 268              		.cfi_def_cfa_offset 32
 269 017c 233C1100 		sd	ra,24(sp)
 270 0180 23388100 		sd	s0,16(sp)
 271 0184 23349100 		sd	s1,8(sp)
 272              		.cfi_offset 1, -8
 273              		.cfi_offset 8, -16
 274              		.cfi_offset 9, -24
 275 0188 13040102 		addi	s0,sp,32
 276              		.cfi_def_cfa 8, 0
  23:src/tcb.cpp   ****     TCB *old = running;
 277              		.loc 1 23 5
  23:src/tcb.cpp   ****     TCB *old = running;
 278              		.loc 1 23 22 is_stmt 0
 279 018c 97070000 		lla	a5,.LANCHOR0
 279      93870700 
 280 0194 23B40700 		sd	zero,8(a5)
  24:src/tcb.cpp   ****     if (!old->isFinished() && !old->status) {
 281              		.loc 1 24 5 is_stmt 1
  24:src/tcb.cpp   ****     if (!old->isFinished() && !old->status) {
 282              		.loc 1 24 10 is_stmt 0
 283 0198 83B40700 		ld	s1,0(a5)
 284              	.LVL23:
  25:src/tcb.cpp   ****         Scheduler::put(old); }
 285              		.loc 1 25 5 is_stmt 1
 286              	.LBB15:
 287              	.LBB16:
  19:src/../h/tcb.hpp **** 
 288              		.loc 2 19 31
  19:src/../h/tcb.hpp **** 
 289              		.loc 2 19 38 is_stmt 0
 290 019c 83C78402 		lbu	a5,40(s1)
 291              	.LVL24:
 292              	.LBE16:
 293              	.LBE15:
  25:src/tcb.cpp   ****         Scheduler::put(old); }
 294              		.loc 1 25 28
GAS LISTING /tmp/ccpnCVT5.s 			page 8


 295 01a0 63960700 		bnez	a5,.L18
  25:src/tcb.cpp   ****         Scheduler::put(old); }
 296              		.loc 1 25 37 discriminator 1
 297 01a4 83A78403 		lw	a5,56(s1)
  25:src/tcb.cpp   ****         Scheduler::put(old); }
 298              		.loc 1 25 28 discriminator 1
 299 01a8 638C0702 		beqz	a5,.L20
 300              	.L18:
  27:src/tcb.cpp   **** 
 301              		.loc 1 27 5 is_stmt 1
  27:src/tcb.cpp   **** 
 302              		.loc 1 27 29 is_stmt 0
 303 01ac 97000000 		call	_ZN9Scheduler3getEv@plt
 303      E7800000 
 304              	.LVL25:
  27:src/tcb.cpp   **** 
 305              		.loc 1 27 13
 306 01b4 97070000 		sd	a0,.LANCHOR0,a5
 306      23B0A700 
  29:src/tcb.cpp   **** }
 307              		.loc 1 29 5 is_stmt 1
  29:src/tcb.cpp   **** }
 308              		.loc 1 29 23 is_stmt 0
 309 01bc 93050501 		addi	a1,a0,16
 310 01c0 13850401 		addi	a0,s1,16
 311 01c4 97000000 		call	_ZN3TCB13contextSwitchEPNS_7ContextES1_@plt
 311      E7800000 
 312              	.LVL26:
  30:src/tcb.cpp   **** 
 313              		.loc 1 30 1
 314 01cc 83308101 		ld	ra,24(sp)
 315              		.cfi_remember_state
 316              		.cfi_restore 1
 317 01d0 03340101 		ld	s0,16(sp)
 318              		.cfi_restore 8
 319              		.cfi_def_cfa 2, 32
 320 01d4 83348100 		ld	s1,8(sp)
 321              		.cfi_restore 9
 322              	.LVL27:
 323 01d8 13010102 		addi	sp,sp,32
 324              		.cfi_def_cfa_offset 0
 325 01dc 67800000 		jr	ra
 326              	.LVL28:
 327              	.L20:
 328              		.cfi_restore_state
  26:src/tcb.cpp   ****     running = Scheduler::get();
 329              		.loc 1 26 9 is_stmt 1
  26:src/tcb.cpp   ****     running = Scheduler::get();
 330              		.loc 1 26 23 is_stmt 0
 331 01e0 13850400 		mv	a0,s1
 332 01e4 97000000 		call	_ZN9Scheduler3putEP3TCB@plt
 332      E7800000 
 333              	.LVL29:
 334 01ec 6FF01FFC 		j	.L18
 335              		.cfi_endproc
 336              	.LFE38:
 338              		.globl	_ZN3TCB16timeSliceCounterE
GAS LISTING /tmp/ccpnCVT5.s 			page 9


 339              		.globl	_ZN3TCB7runningE
 340              		.bss
 341              		.align	3
 342              		.set	.LANCHOR0,. + 0
 345              	_ZN3TCB7runningE:
 346 0000 00000000 		.zero	8
 346      00000000 
 349              	_ZN3TCB16timeSliceCounterE:
 350 0008 00000000 		.zero	8
 350      00000000 
 351              		.text
 352              	.Letext0:
 353              		.file 3 "src/../h/../lib/hw.h"
 354              		.file 4 "src/../h/scheduler.hpp"
 355              		.file 5 "src/../h/Riscv.hpp"
 356              		.file 6 "src/../h/syscall_c.h"
 2720              		.align	3
 2723              	DW.ref.__gxx_personality_v0:
 2724 0000 00000000 		.dword	__gxx_personality_v0
 2724      00000000 
 2725              		.ident	"GCC: (Ubuntu 9.4.0-1ubuntu1~20.04) 9.4.0"
 2726              		.section	.note.GNU-stack,"",@progbits
GAS LISTING /tmp/ccpnCVT5.s 			page 10

